Archive member included to satisfy reference by file (symbol)

.\CortexM0\ARM_GCC_541\Debug\BLDC Motor.a(INHA.o)
                              .\CortexM0\ARM_GCC_541\Debug\main.o (INHA_Write)
.\CortexM0\ARM_GCC_541\Debug\BLDC Motor.a(INHB.o)
                              .\CortexM0\ARM_GCC_541\Debug\main.o (INHB_Write)
.\CortexM0\ARM_GCC_541\Debug\BLDC Motor.a(INHC.o)
                              .\CortexM0\ARM_GCC_541\Debug\main.o (INHC_Write)
.\CortexM0\ARM_GCC_541\Debug\BLDC Motor.a(CyLib.o)
                              .\CortexM0\ARM_GCC_541\Debug\cyfitter_cfg.o (CyIntEnable)
.\CortexM0\ARM_GCC_541\Debug\BLDC Motor.a(CyLFClk.o)
                              .\CortexM0\ARM_GCC_541\Debug\BLDC Motor.a(CyLib.o) (CySysClkWcoEnabled)
.\CortexM0\ARM_GCC_541\Debug\BLDC Motor.a(PWM_A.o)
                              .\CortexM0\ARM_GCC_541\Debug\main.o (PWM_A_Stop)
.\CortexM0\ARM_GCC_541\Debug\BLDC Motor.a(PWM_B.o)
                              .\CortexM0\ARM_GCC_541\Debug\main.o (PWM_B_Stop)
.\CortexM0\ARM_GCC_541\Debug\BLDC Motor.a(PWM_C.o)
                              .\CortexM0\ARM_GCC_541\Debug\main.o (PWM_C_Stop)
.\CortexM0\ARM_GCC_541\Debug\BLDC Motor.a(u.o)
                              .\CortexM0\ARM_GCC_541\Debug\main.o (u_Read)
.\CortexM0\ARM_GCC_541\Debug\BLDC Motor.a(v.o)
                              .\CortexM0\ARM_GCC_541\Debug\main.o (v_Read)
.\CortexM0\ARM_GCC_541\Debug\BLDC Motor.a(w.o)
                              .\CortexM0\ARM_GCC_541\Debug\main.o (w_Read)
.\CortexM0\ARM_GCC_541\Debug\BLDC Motor.a(UART.o)
                              .\CortexM0\ARM_GCC_541\Debug\main.o (UART_Start)
.\CortexM0\ARM_GCC_541\Debug\BLDC Motor.a(UART_SPI_UART.o)
                              .\CortexM0\ARM_GCC_541\Debug\main.o (UART_SpiUartWriteTxData)
.\CortexM0\ARM_GCC_541\Debug\BLDC Motor.a(UART_UART.o)
                              .\CortexM0\ARM_GCC_541\Debug\BLDC Motor.a(UART.o) (UART_UartInit)
.\CortexM0\ARM_GCC_541\Debug\BLDC Motor.a(CTRL.o)
                              .\CortexM0\ARM_GCC_541\Debug\main.o (CTRL_Write)
.\CortexM0\ARM_GCC_541\Debug\BLDC Motor.a(Counter_micros.o)
                              .\CortexM0\ARM_GCC_541\Debug\main.o (Counter_micros_ReadCounter)
.\CortexM0\ARM_GCC_541\Debug\BLDC Motor.a(isr_millis.o)
                              .\CortexM0\ARM_GCC_541\Debug\main.o (isr_millis_StartEx)
.\CortexM0\ARM_GCC_541\Debug\BLDC Motor.a(isr_uf.o)
                              .\CortexM0\ARM_GCC_541\Debug\main.o (isr_uf_StartEx)
.\CortexM0\ARM_GCC_541\Debug\BLDC Motor.a(isr_vf.o)
                              .\CortexM0\ARM_GCC_541\Debug\main.o (isr_vf_StartEx)
.\CortexM0\ARM_GCC_541\Debug\BLDC Motor.a(isr_wf.o)
                              .\CortexM0\ARM_GCC_541\Debug\main.o (isr_wf_StartEx)
.\CortexM0\ARM_GCC_541\Debug\BLDC Motor.a(isr_wr.o)
                              .\CortexM0\ARM_GCC_541\Debug\main.o (isr_wr_StartEx)
.\CortexM0\ARM_GCC_541\Debug\BLDC Motor.a(isr_vr.o)
                              .\CortexM0\ARM_GCC_541\Debug\main.o (isr_vr_StartEx)
.\CortexM0\ARM_GCC_541\Debug\BLDC Motor.a(isr_ur.o)
                              .\CortexM0\ARM_GCC_541\Debug\main.o (isr_ur_StartEx)
.\CortexM0\ARM_GCC_541\Debug\BLDC Motor.a(CyBootAsmGnu.o)
                              .\CortexM0\ARM_GCC_541\Debug\BLDC Motor.a(CyLib.o) (CyDelayCycles)
.\CortexM0\ARM_GCC_541\Debug\BLDC Motor.a(CyFlash.o)
                              .\CortexM0\ARM_GCC_541\Debug\BLDC Motor.a(CyLib.o) (CySysFlashSetWaitCycles)
c:/program files (x86)/cypress/psoc creator/4.4/psoc creator/import/gnu/arm/5.4.1/bin/../lib/gcc/arm-none-eabi/5.4.1/armv6-m\libgcc.a(_udivsi3.o)
                              .\CortexM0\ARM_GCC_541\Debug\main.o (__aeabi_uidiv)
c:/program files (x86)/cypress/psoc creator/4.4/psoc creator/import/gnu/arm/5.4.1/bin/../lib/gcc/arm-none-eabi/5.4.1/armv6-m\libgcc.a(_divsi3.o)
                              .\CortexM0\ARM_GCC_541\Debug\BLDC Motor.a(CyLFClk.o) (__aeabi_idiv)
c:/program files (x86)/cypress/psoc creator/4.4/psoc creator/import/gnu/arm/5.4.1/bin/../lib/gcc/arm-none-eabi/5.4.1/armv6-m\libgcc.a(_dvmd_tls.o)
                              c:/program files (x86)/cypress/psoc creator/4.4/psoc creator/import/gnu/arm/5.4.1/bin/../lib/gcc/arm-none-eabi/5.4.1/armv6-m\libgcc.a(_udivsi3.o) (__aeabi_idiv0)
c:/program files (x86)/cypress/psoc creator/4.4/psoc creator/import/gnu/arm/5.4.1/bin/../lib/gcc/arm-none-eabi/5.4.1/armv6-m\libgcc.a(_arm_cmpdf2.o)
                              .\CortexM0\ARM_GCC_541\Debug\main.o (__aeabi_dcmplt)
c:/program files (x86)/cypress/psoc creator/4.4/psoc creator/import/gnu/arm/5.4.1/bin/../lib/gcc/arm-none-eabi/5.4.1/armv6-m\libgcc.a(_arm_cmpsf2.o)
                              .\CortexM0\ARM_GCC_541\Debug\main.o (__aeabi_fcmplt)
c:/program files (x86)/cypress/psoc creator/4.4/psoc creator/import/gnu/arm/5.4.1/bin/../lib/gcc/arm-none-eabi/5.4.1/armv6-m\libgcc.a(_fixunssfsi.o)
                              .\CortexM0\ARM_GCC_541\Debug\main.o (__aeabi_f2uiz)
c:/program files (x86)/cypress/psoc creator/4.4/psoc creator/import/gnu/arm/5.4.1/bin/../lib/gcc/arm-none-eabi/5.4.1/armv6-m\libgcc.a(_fixunsdfsi.o)
                              .\CortexM0\ARM_GCC_541\Debug\main.o (__aeabi_d2uiz)
c:/program files (x86)/cypress/psoc creator/4.4/psoc creator/import/gnu/arm/5.4.1/bin/../lib/gcc/arm-none-eabi/5.4.1/armv6-m\libgcc.a(addsf3.o)
                              .\CortexM0\ARM_GCC_541\Debug\main.o (__aeabi_fadd)
c:/program files (x86)/cypress/psoc creator/4.4/psoc creator/import/gnu/arm/5.4.1/bin/../lib/gcc/arm-none-eabi/5.4.1/armv6-m\libgcc.a(divsf3.o)
                              .\CortexM0\ARM_GCC_541\Debug\main.o (__aeabi_fdiv)
c:/program files (x86)/cypress/psoc creator/4.4/psoc creator/import/gnu/arm/5.4.1/bin/../lib/gcc/arm-none-eabi/5.4.1/armv6-m\libgcc.a(eqsf2.o)
                              c:/program files (x86)/cypress/psoc creator/4.4/psoc creator/import/gnu/arm/5.4.1/bin/../lib/gcc/arm-none-eabi/5.4.1/armv6-m\libgcc.a(_arm_cmpsf2.o) (__eqsf2)
c:/program files (x86)/cypress/psoc creator/4.4/psoc creator/import/gnu/arm/5.4.1/bin/../lib/gcc/arm-none-eabi/5.4.1/armv6-m\libgcc.a(gesf2.o)
                              c:/program files (x86)/cypress/psoc creator/4.4/psoc creator/import/gnu/arm/5.4.1/bin/../lib/gcc/arm-none-eabi/5.4.1/armv6-m\libgcc.a(_arm_cmpsf2.o) (__gesf2)
c:/program files (x86)/cypress/psoc creator/4.4/psoc creator/import/gnu/arm/5.4.1/bin/../lib/gcc/arm-none-eabi/5.4.1/armv6-m\libgcc.a(lesf2.o)
                              c:/program files (x86)/cypress/psoc creator/4.4/psoc creator/import/gnu/arm/5.4.1/bin/../lib/gcc/arm-none-eabi/5.4.1/armv6-m\libgcc.a(_arm_cmpsf2.o) (__lesf2)
c:/program files (x86)/cypress/psoc creator/4.4/psoc creator/import/gnu/arm/5.4.1/bin/../lib/gcc/arm-none-eabi/5.4.1/armv6-m\libgcc.a(mulsf3.o)
                              .\CortexM0\ARM_GCC_541\Debug\main.o (__aeabi_fmul)
c:/program files (x86)/cypress/psoc creator/4.4/psoc creator/import/gnu/arm/5.4.1/bin/../lib/gcc/arm-none-eabi/5.4.1/armv6-m\libgcc.a(subsf3.o)
                              .\CortexM0\ARM_GCC_541\Debug\main.o (__aeabi_fsub)
c:/program files (x86)/cypress/psoc creator/4.4/psoc creator/import/gnu/arm/5.4.1/bin/../lib/gcc/arm-none-eabi/5.4.1/armv6-m\libgcc.a(fixsfsi.o)
                              .\CortexM0\ARM_GCC_541\Debug\main.o (__aeabi_f2iz)
c:/program files (x86)/cypress/psoc creator/4.4/psoc creator/import/gnu/arm/5.4.1/bin/../lib/gcc/arm-none-eabi/5.4.1/armv6-m\libgcc.a(floatsisf.o)
                              .\CortexM0\ARM_GCC_541\Debug\main.o (__aeabi_i2f)
c:/program files (x86)/cypress/psoc creator/4.4/psoc creator/import/gnu/arm/5.4.1/bin/../lib/gcc/arm-none-eabi/5.4.1/armv6-m\libgcc.a(floatunsisf.o)
                              .\CortexM0\ARM_GCC_541\Debug\main.o (__aeabi_ui2f)
c:/program files (x86)/cypress/psoc creator/4.4/psoc creator/import/gnu/arm/5.4.1/bin/../lib/gcc/arm-none-eabi/5.4.1/armv6-m\libgcc.a(divdf3.o)
                              .\CortexM0\ARM_GCC_541\Debug\main.o (__aeabi_ddiv)
c:/program files (x86)/cypress/psoc creator/4.4/psoc creator/import/gnu/arm/5.4.1/bin/../lib/gcc/arm-none-eabi/5.4.1/armv6-m\libgcc.a(eqdf2.o)
                              c:/program files (x86)/cypress/psoc creator/4.4/psoc creator/import/gnu/arm/5.4.1/bin/../lib/gcc/arm-none-eabi/5.4.1/armv6-m\libgcc.a(_arm_cmpdf2.o) (__eqdf2)
c:/program files (x86)/cypress/psoc creator/4.4/psoc creator/import/gnu/arm/5.4.1/bin/../lib/gcc/arm-none-eabi/5.4.1/armv6-m\libgcc.a(gedf2.o)
                              c:/program files (x86)/cypress/psoc creator/4.4/psoc creator/import/gnu/arm/5.4.1/bin/../lib/gcc/arm-none-eabi/5.4.1/armv6-m\libgcc.a(_arm_cmpdf2.o) (__gedf2)
c:/program files (x86)/cypress/psoc creator/4.4/psoc creator/import/gnu/arm/5.4.1/bin/../lib/gcc/arm-none-eabi/5.4.1/armv6-m\libgcc.a(ledf2.o)
                              c:/program files (x86)/cypress/psoc creator/4.4/psoc creator/import/gnu/arm/5.4.1/bin/../lib/gcc/arm-none-eabi/5.4.1/armv6-m\libgcc.a(_arm_cmpdf2.o) (__ledf2)
c:/program files (x86)/cypress/psoc creator/4.4/psoc creator/import/gnu/arm/5.4.1/bin/../lib/gcc/arm-none-eabi/5.4.1/armv6-m\libgcc.a(muldf3.o)
                              .\CortexM0\ARM_GCC_541\Debug\main.o (__aeabi_dmul)
c:/program files (x86)/cypress/psoc creator/4.4/psoc creator/import/gnu/arm/5.4.1/bin/../lib/gcc/arm-none-eabi/5.4.1/armv6-m\libgcc.a(subdf3.o)
                              c:/program files (x86)/cypress/psoc creator/4.4/psoc creator/import/gnu/arm/5.4.1/bin/../lib/gcc/arm-none-eabi/5.4.1/armv6-m\libgcc.a(_fixunsdfsi.o) (__aeabi_dsub)
c:/program files (x86)/cypress/psoc creator/4.4/psoc creator/import/gnu/arm/5.4.1/bin/../lib/gcc/arm-none-eabi/5.4.1/armv6-m\libgcc.a(fixdfsi.o)
                              c:/program files (x86)/cypress/psoc creator/4.4/psoc creator/import/gnu/arm/5.4.1/bin/../lib/gcc/arm-none-eabi/5.4.1/armv6-m\libgcc.a(_fixunsdfsi.o) (__aeabi_d2iz)
c:/program files (x86)/cypress/psoc creator/4.4/psoc creator/import/gnu/arm/5.4.1/bin/../lib/gcc/arm-none-eabi/5.4.1/armv6-m\libgcc.a(floatunsidf.o)
                              .\CortexM0\ARM_GCC_541\Debug\main.o (__aeabi_ui2d)
c:/program files (x86)/cypress/psoc creator/4.4/psoc creator/import/gnu/arm/5.4.1/bin/../lib/gcc/arm-none-eabi/5.4.1/armv6-m\libgcc.a(extendsfdf2.o)
                              .\CortexM0\ARM_GCC_541\Debug\main.o (__aeabi_f2d)
c:/program files (x86)/cypress/psoc creator/4.4/psoc creator/import/gnu/arm/5.4.1/bin/../lib/gcc/arm-none-eabi/5.4.1/armv6-m\libgcc.a(truncdfsf2.o)
                              .\CortexM0\ARM_GCC_541\Debug\main.o (__aeabi_d2f)
c:/program files (x86)/cypress/psoc creator/4.4/psoc creator/import/gnu/arm/5.4.1/bin/../lib/gcc/arm-none-eabi/5.4.1/armv6-m\libgcc.a(_clzsi2.o)
                              c:/program files (x86)/cypress/psoc creator/4.4/psoc creator/import/gnu/arm/5.4.1/bin/../lib/gcc/arm-none-eabi/5.4.1/armv6-m\libgcc.a(addsf3.o) (__clzsi2)
c:/program files (x86)/cypress/psoc creator/4.4/psoc creator/import/gnu/arm/5.4.1/bin/../lib/gcc/arm-none-eabi/5.4.1/../../../../arm-none-eabi/lib/armv6-m\libg_nano.a(lib_a-atof.o)
                              .\CortexM0\ARM_GCC_541\Debug\main.o (atof)
c:/program files (x86)/cypress/psoc creator/4.4/psoc creator/import/gnu/arm/5.4.1/bin/../lib/gcc/arm-none-eabi/5.4.1/../../../../arm-none-eabi/lib/armv6-m\libg_nano.a(lib_a-errno.o)
                              .\CortexM0\ARM_GCC_541\Debug\Cm0Start.o (__errno)
c:/program files (x86)/cypress/psoc creator/4.4/psoc creator/import/gnu/arm/5.4.1/bin/../lib/gcc/arm-none-eabi/5.4.1/../../../../arm-none-eabi/lib/armv6-m\libg_nano.a(lib_a-exit.o)
                              c:/program files (x86)/cypress/psoc creator/4.4/psoc creator/import/gnu/arm/5.4.1/bin/../lib/gcc/arm-none-eabi/5.4.1/../../../../arm-none-eabi/lib/armv6-m/crt0.o (exit)
c:/program files (x86)/cypress/psoc creator/4.4/psoc creator/import/gnu/arm/5.4.1/bin/../lib/gcc/arm-none-eabi/5.4.1/../../../../arm-none-eabi/lib/armv6-m\libg_nano.a(lib_a-impure.o)
                              c:/program files (x86)/cypress/psoc creator/4.4/psoc creator/import/gnu/arm/5.4.1/bin/../lib/gcc/arm-none-eabi/5.4.1/../../../../arm-none-eabi/lib/armv6-m\libg_nano.a(lib_a-exit.o) (_global_impure_ptr)
c:/program files (x86)/cypress/psoc creator/4.4/psoc creator/import/gnu/arm/5.4.1/bin/../lib/gcc/arm-none-eabi/5.4.1/../../../../arm-none-eabi/lib/armv6-m\libg_nano.a(lib_a-init.o)
                              c:/program files (x86)/cypress/psoc creator/4.4/psoc creator/import/gnu/arm/5.4.1/bin/../lib/gcc/arm-none-eabi/5.4.1/../../../../arm-none-eabi/lib/armv6-m/crt0.o (__libc_init_array)
c:/program files (x86)/cypress/psoc creator/4.4/psoc creator/import/gnu/arm/5.4.1/bin/../lib/gcc/arm-none-eabi/5.4.1/../../../../arm-none-eabi/lib/armv6-m\libg_nano.a(lib_a-memcpy-stub.o)
                              .\CortexM0\ARM_GCC_541\Debug\BLDC Motor.a(CyFlash.o) (memcpy)
c:/program files (x86)/cypress/psoc creator/4.4/psoc creator/import/gnu/arm/5.4.1/bin/../lib/gcc/arm-none-eabi/5.4.1/../../../../arm-none-eabi/lib/armv6-m\libg_nano.a(lib_a-memset.o)
                              c:/program files (x86)/cypress/psoc creator/4.4/psoc creator/import/gnu/arm/5.4.1/bin/../lib/gcc/arm-none-eabi/5.4.1/../../../../arm-none-eabi/lib/armv6-m/crt0.o (memset)
c:/program files (x86)/cypress/psoc creator/4.4/psoc creator/import/gnu/arm/5.4.1/bin/../lib/gcc/arm-none-eabi/5.4.1/../../../../arm-none-eabi/lib/armv6-m\libg_nano.a(lib_a-printf.o)
                              .\CortexM0\ARM_GCC_541\Debug\main.o (printf)
c:/program files (x86)/cypress/psoc creator/4.4/psoc creator/import/gnu/arm/5.4.1/bin/../lib/gcc/arm-none-eabi/5.4.1/../../../../arm-none-eabi/lib/armv6-m\libg_nano.a(lib_a-putchar.o)
                              .\CortexM0\ARM_GCC_541\Debug\main.o (putchar)
c:/program files (x86)/cypress/psoc creator/4.4/psoc creator/import/gnu/arm/5.4.1/bin/../lib/gcc/arm-none-eabi/5.4.1/../../../../arm-none-eabi/lib/armv6-m\libg_nano.a(lib_a-puts.o)
                              .\CortexM0\ARM_GCC_541\Debug\main.o (puts)
c:/program files (x86)/cypress/psoc creator/4.4/psoc creator/import/gnu/arm/5.4.1/bin/../lib/gcc/arm-none-eabi/5.4.1/../../../../arm-none-eabi/lib/armv6-m\libg_nano.a(lib_a-strtod.o)
                              c:/program files (x86)/cypress/psoc creator/4.4/psoc creator/import/gnu/arm/5.4.1/bin/../lib/gcc/arm-none-eabi/5.4.1/../../../../arm-none-eabi/lib/armv6-m\libg_nano.a(lib_a-atof.o) (strtod)
c:/program files (x86)/cypress/psoc creator/4.4/psoc creator/import/gnu/arm/5.4.1/bin/../lib/gcc/arm-none-eabi/5.4.1/../../../../arm-none-eabi/lib/armv6-m\libg_nano.a(lib_a-wbuf.o)
                              c:/program files (x86)/cypress/psoc creator/4.4/psoc creator/import/gnu/arm/5.4.1/bin/../lib/gcc/arm-none-eabi/5.4.1/../../../../arm-none-eabi/lib/armv6-m\libg_nano.a(lib_a-puts.o) (__swbuf_r)
c:/program files (x86)/cypress/psoc creator/4.4/psoc creator/import/gnu/arm/5.4.1/bin/../lib/gcc/arm-none-eabi/5.4.1/../../../../arm-none-eabi/lib/armv6-m\libg_nano.a(lib_a-wsetup.o)
                              c:/program files (x86)/cypress/psoc creator/4.4/psoc creator/import/gnu/arm/5.4.1/bin/../lib/gcc/arm-none-eabi/5.4.1/../../../../arm-none-eabi/lib/armv6-m\libg_nano.a(lib_a-puts.o) (__swsetup_r)
c:/program files (x86)/cypress/psoc creator/4.4/psoc creator/import/gnu/arm/5.4.1/bin/../lib/gcc/arm-none-eabi/5.4.1/../../../../arm-none-eabi/lib/armv6-m\libg_nano.a(lib_a-fflush.o)
                              c:/program files (x86)/cypress/psoc creator/4.4/psoc creator/import/gnu/arm/5.4.1/bin/../lib/gcc/arm-none-eabi/5.4.1/../../../../arm-none-eabi/lib/armv6-m\libg_nano.a(lib_a-wbuf.o) (_fflush_r)
c:/program files (x86)/cypress/psoc creator/4.4/psoc creator/import/gnu/arm/5.4.1/bin/../lib/gcc/arm-none-eabi/5.4.1/../../../../arm-none-eabi/lib/armv6-m\libg_nano.a(lib_a-findfp.o)
                              c:/program files (x86)/cypress/psoc creator/4.4/psoc creator/import/gnu/arm/5.4.1/bin/../lib/gcc/arm-none-eabi/5.4.1/../../../../arm-none-eabi/lib/armv6-m\libg_nano.a(lib_a-printf.o) (__sinit)
c:/program files (x86)/cypress/psoc creator/4.4/psoc creator/import/gnu/arm/5.4.1/bin/../lib/gcc/arm-none-eabi/5.4.1/../../../../arm-none-eabi/lib/armv6-m\libg_nano.a(lib_a-fwalk.o)
                              c:/program files (x86)/cypress/psoc creator/4.4/psoc creator/import/gnu/arm/5.4.1/bin/../lib/gcc/arm-none-eabi/5.4.1/../../../../arm-none-eabi/lib/armv6-m\libg_nano.a(lib_a-findfp.o) (_fwalk)
c:/program files (x86)/cypress/psoc creator/4.4/psoc creator/import/gnu/arm/5.4.1/bin/../lib/gcc/arm-none-eabi/5.4.1/../../../../arm-none-eabi/lib/armv6-m\libg_nano.a(lib_a-gdtoa-gethex.o)
                              c:/program files (x86)/cypress/psoc creator/4.4/psoc creator/import/gnu/arm/5.4.1/bin/../lib/gcc/arm-none-eabi/5.4.1/../../../../arm-none-eabi/lib/armv6-m\libg_nano.a(lib_a-strtod.o) (__gethex)
c:/program files (x86)/cypress/psoc creator/4.4/psoc creator/import/gnu/arm/5.4.1/bin/../lib/gcc/arm-none-eabi/5.4.1/../../../../arm-none-eabi/lib/armv6-m\libg_nano.a(lib_a-gdtoa-hexnan.o)
                              c:/program files (x86)/cypress/psoc creator/4.4/psoc creator/import/gnu/arm/5.4.1/bin/../lib/gcc/arm-none-eabi/5.4.1/../../../../arm-none-eabi/lib/armv6-m\libg_nano.a(lib_a-strtod.o) (__match)
c:/program files (x86)/cypress/psoc creator/4.4/psoc creator/import/gnu/arm/5.4.1/bin/../lib/gcc/arm-none-eabi/5.4.1/../../../../arm-none-eabi/lib/armv6-m\libg_nano.a(lib_a-locale.o)
                              c:/program files (x86)/cypress/psoc creator/4.4/psoc creator/import/gnu/arm/5.4.1/bin/../lib/gcc/arm-none-eabi/5.4.1/../../../../arm-none-eabi/lib/armv6-m\libg_nano.a(lib_a-strtod.o) (_localeconv_r)
c:/program files (x86)/cypress/psoc creator/4.4/psoc creator/import/gnu/arm/5.4.1/bin/../lib/gcc/arm-none-eabi/5.4.1/../../../../arm-none-eabi/lib/armv6-m\libg_nano.a(lib_a-makebuf.o)
                              c:/program files (x86)/cypress/psoc creator/4.4/psoc creator/import/gnu/arm/5.4.1/bin/../lib/gcc/arm-none-eabi/5.4.1/../../../../arm-none-eabi/lib/armv6-m\libg_nano.a(lib_a-wsetup.o) (__smakebuf_r)
c:/program files (x86)/cypress/psoc creator/4.4/psoc creator/import/gnu/arm/5.4.1/bin/../lib/gcc/arm-none-eabi/5.4.1/../../../../arm-none-eabi/lib/armv6-m\libg_nano.a(lib_a-mprec.o)
                              c:/program files (x86)/cypress/psoc creator/4.4/psoc creator/import/gnu/arm/5.4.1/bin/../lib/gcc/arm-none-eabi/5.4.1/../../../../arm-none-eabi/lib/armv6-m\libg_nano.a(lib_a-strtod.o) (_Balloc)
c:/program files (x86)/cypress/psoc creator/4.4/psoc creator/import/gnu/arm/5.4.1/bin/../lib/gcc/arm-none-eabi/5.4.1/../../../../arm-none-eabi/lib/armv6-m\libg_nano.a(lib_a-nano-callocr.o)
                              c:/program files (x86)/cypress/psoc creator/4.4/psoc creator/import/gnu/arm/5.4.1/bin/../lib/gcc/arm-none-eabi/5.4.1/../../../../arm-none-eabi/lib/armv6-m\libg_nano.a(lib_a-mprec.o) (_calloc_r)
c:/program files (x86)/cypress/psoc creator/4.4/psoc creator/import/gnu/arm/5.4.1/bin/../lib/gcc/arm-none-eabi/5.4.1/../../../../arm-none-eabi/lib/armv6-m\libg_nano.a(lib_a-nano-freer.o)
                              c:/program files (x86)/cypress/psoc creator/4.4/psoc creator/import/gnu/arm/5.4.1/bin/../lib/gcc/arm-none-eabi/5.4.1/../../../../arm-none-eabi/lib/armv6-m\libg_nano.a(lib_a-wsetup.o) (_free_r)
c:/program files (x86)/cypress/psoc creator/4.4/psoc creator/import/gnu/arm/5.4.1/bin/../lib/gcc/arm-none-eabi/5.4.1/../../../../arm-none-eabi/lib/armv6-m\libg_nano.a(lib_a-nano-mallocr.o)
                              c:/program files (x86)/cypress/psoc creator/4.4/psoc creator/import/gnu/arm/5.4.1/bin/../lib/gcc/arm-none-eabi/5.4.1/../../../../arm-none-eabi/lib/armv6-m\libg_nano.a(lib_a-findfp.o) (_malloc_r)
c:/program files (x86)/cypress/psoc creator/4.4/psoc creator/import/gnu/arm/5.4.1/bin/../lib/gcc/arm-none-eabi/5.4.1/../../../../arm-none-eabi/lib/armv6-m\libg_nano.a(lib_a-nano-vfprintf.o)
                              c:/program files (x86)/cypress/psoc creator/4.4/psoc creator/import/gnu/arm/5.4.1/bin/../lib/gcc/arm-none-eabi/5.4.1/../../../../arm-none-eabi/lib/armv6-m\libg_nano.a(lib_a-printf.o) (_vfprintf_r)
c:/program files (x86)/cypress/psoc creator/4.4/psoc creator/import/gnu/arm/5.4.1/bin/../lib/gcc/arm-none-eabi/5.4.1/../../../../arm-none-eabi/lib/armv6-m\libg_nano.a(lib_a-nano-vfprintf_i.o)
                              c:/program files (x86)/cypress/psoc creator/4.4/psoc creator/import/gnu/arm/5.4.1/bin/../lib/gcc/arm-none-eabi/5.4.1/../../../../arm-none-eabi/lib/armv6-m\libg_nano.a(lib_a-nano-vfprintf.o) (_printf_i)
c:/program files (x86)/cypress/psoc creator/4.4/psoc creator/import/gnu/arm/5.4.1/bin/../lib/gcc/arm-none-eabi/5.4.1/../../../../arm-none-eabi/lib/armv6-m\libg_nano.a(lib_a-putc.o)
                              c:/program files (x86)/cypress/psoc creator/4.4/psoc creator/import/gnu/arm/5.4.1/bin/../lib/gcc/arm-none-eabi/5.4.1/../../../../arm-none-eabi/lib/armv6-m\libg_nano.a(lib_a-putchar.o) (_putc_r)
c:/program files (x86)/cypress/psoc creator/4.4/psoc creator/import/gnu/arm/5.4.1/bin/../lib/gcc/arm-none-eabi/5.4.1/../../../../arm-none-eabi/lib/armv6-m\libg_nano.a(lib_a-sbrkr.o)
                              c:/program files (x86)/cypress/psoc creator/4.4/psoc creator/import/gnu/arm/5.4.1/bin/../lib/gcc/arm-none-eabi/5.4.1/../../../../arm-none-eabi/lib/armv6-m\libg_nano.a(lib_a-nano-mallocr.o) (_sbrk_r)
c:/program files (x86)/cypress/psoc creator/4.4/psoc creator/import/gnu/arm/5.4.1/bin/../lib/gcc/arm-none-eabi/5.4.1/../../../../arm-none-eabi/lib/armv6-m\libg_nano.a(lib_a-sf_nan.o)
                              c:/program files (x86)/cypress/psoc creator/4.4/psoc creator/import/gnu/arm/5.4.1/bin/../lib/gcc/arm-none-eabi/5.4.1/../../../../arm-none-eabi/lib/armv6-m\libg_nano.a(lib_a-strtod.o) (nanf)
c:/program files (x86)/cypress/psoc creator/4.4/psoc creator/import/gnu/arm/5.4.1/bin/../lib/gcc/arm-none-eabi/5.4.1/../../../../arm-none-eabi/lib/armv6-m\libg_nano.a(lib_a-stdio.o)
                              c:/program files (x86)/cypress/psoc creator/4.4/psoc creator/import/gnu/arm/5.4.1/bin/../lib/gcc/arm-none-eabi/5.4.1/../../../../arm-none-eabi/lib/armv6-m\libg_nano.a(lib_a-findfp.o) (__sread)
c:/program files (x86)/cypress/psoc creator/4.4/psoc creator/import/gnu/arm/5.4.1/bin/../lib/gcc/arm-none-eabi/5.4.1/../../../../arm-none-eabi/lib/armv6-m\libg_nano.a(lib_a-strcmp.o)
                              c:/program files (x86)/cypress/psoc creator/4.4/psoc creator/import/gnu/arm/5.4.1/bin/../lib/gcc/arm-none-eabi/5.4.1/../../../../arm-none-eabi/lib/armv6-m\libg_nano.a(lib_a-locale.o) (strcmp)
c:/program files (x86)/cypress/psoc creator/4.4/psoc creator/import/gnu/arm/5.4.1/bin/../lib/gcc/arm-none-eabi/5.4.1/../../../../arm-none-eabi/lib/armv6-m\libg_nano.a(lib_a-strlen.o)
                              c:/program files (x86)/cypress/psoc creator/4.4/psoc creator/import/gnu/arm/5.4.1/bin/../lib/gcc/arm-none-eabi/5.4.1/../../../../arm-none-eabi/lib/armv6-m\libg_nano.a(lib_a-strtod.o) (strlen)
c:/program files (x86)/cypress/psoc creator/4.4/psoc creator/import/gnu/arm/5.4.1/bin/../lib/gcc/arm-none-eabi/5.4.1/../../../../arm-none-eabi/lib/armv6-m\libg_nano.a(lib_a-strncmp.o)
                              c:/program files (x86)/cypress/psoc creator/4.4/psoc creator/import/gnu/arm/5.4.1/bin/../lib/gcc/arm-none-eabi/5.4.1/../../../../arm-none-eabi/lib/armv6-m\libg_nano.a(lib_a-strtod.o) (strncmp)
c:/program files (x86)/cypress/psoc creator/4.4/psoc creator/import/gnu/arm/5.4.1/bin/../lib/gcc/arm-none-eabi/5.4.1/../../../../arm-none-eabi/lib/armv6-m\libg_nano.a(lib_a-writer.o)
                              c:/program files (x86)/cypress/psoc creator/4.4/psoc creator/import/gnu/arm/5.4.1/bin/../lib/gcc/arm-none-eabi/5.4.1/../../../../arm-none-eabi/lib/armv6-m\libg_nano.a(lib_a-stdio.o) (_write_r)
c:/program files (x86)/cypress/psoc creator/4.4/psoc creator/import/gnu/arm/5.4.1/bin/../lib/gcc/arm-none-eabi/5.4.1/../../../../arm-none-eabi/lib/armv6-m\libg_nano.a(lib_a-closer.o)
                              c:/program files (x86)/cypress/psoc creator/4.4/psoc creator/import/gnu/arm/5.4.1/bin/../lib/gcc/arm-none-eabi/5.4.1/../../../../arm-none-eabi/lib/armv6-m\libg_nano.a(lib_a-stdio.o) (_close_r)
c:/program files (x86)/cypress/psoc creator/4.4/psoc creator/import/gnu/arm/5.4.1/bin/../lib/gcc/arm-none-eabi/5.4.1/../../../../arm-none-eabi/lib/armv6-m\libg_nano.a(lib_a-fstatr.o)
                              c:/program files (x86)/cypress/psoc creator/4.4/psoc creator/import/gnu/arm/5.4.1/bin/../lib/gcc/arm-none-eabi/5.4.1/../../../../arm-none-eabi/lib/armv6-m\libg_nano.a(lib_a-makebuf.o) (_fstat_r)
c:/program files (x86)/cypress/psoc creator/4.4/psoc creator/import/gnu/arm/5.4.1/bin/../lib/gcc/arm-none-eabi/5.4.1/../../../../arm-none-eabi/lib/armv6-m\libg_nano.a(lib_a-fvwrite.o)
                              c:/program files (x86)/cypress/psoc creator/4.4/psoc creator/import/gnu/arm/5.4.1/bin/../lib/gcc/arm-none-eabi/5.4.1/../../../../arm-none-eabi/lib/armv6-m\libg_nano.a(lib_a-nano-vfprintf.o) (__sfvwrite_r)
c:/program files (x86)/cypress/psoc creator/4.4/psoc creator/import/gnu/arm/5.4.1/bin/../lib/gcc/arm-none-eabi/5.4.1/../../../../arm-none-eabi/lib/armv6-m\libg_nano.a(lib_a-isattyr.o)
                              c:/program files (x86)/cypress/psoc creator/4.4/psoc creator/import/gnu/arm/5.4.1/bin/../lib/gcc/arm-none-eabi/5.4.1/../../../../arm-none-eabi/lib/armv6-m\libg_nano.a(lib_a-makebuf.o) (_isatty_r)
c:/program files (x86)/cypress/psoc creator/4.4/psoc creator/import/gnu/arm/5.4.1/bin/../lib/gcc/arm-none-eabi/5.4.1/../../../../arm-none-eabi/lib/armv6-m\libg_nano.a(lib_a-lseekr.o)
                              c:/program files (x86)/cypress/psoc creator/4.4/psoc creator/import/gnu/arm/5.4.1/bin/../lib/gcc/arm-none-eabi/5.4.1/../../../../arm-none-eabi/lib/armv6-m\libg_nano.a(lib_a-stdio.o) (_lseek_r)
c:/program files (x86)/cypress/psoc creator/4.4/psoc creator/import/gnu/arm/5.4.1/bin/../lib/gcc/arm-none-eabi/5.4.1/../../../../arm-none-eabi/lib/armv6-m\libg_nano.a(lib_a-malloc.o)
                              c:/program files (x86)/cypress/psoc creator/4.4/psoc creator/import/gnu/arm/5.4.1/bin/../lib/gcc/arm-none-eabi/5.4.1/../../../../arm-none-eabi/lib/armv6-m\libg_nano.a(lib_a-mprec.o) (malloc)
c:/program files (x86)/cypress/psoc creator/4.4/psoc creator/import/gnu/arm/5.4.1/bin/../lib/gcc/arm-none-eabi/5.4.1/../../../../arm-none-eabi/lib/armv6-m\libg_nano.a(lib_a-memchr-stub.o)
                              c:/program files (x86)/cypress/psoc creator/4.4/psoc creator/import/gnu/arm/5.4.1/bin/../lib/gcc/arm-none-eabi/5.4.1/../../../../arm-none-eabi/lib/armv6-m\libg_nano.a(lib_a-nano-vfprintf.o) (memchr)
c:/program files (x86)/cypress/psoc creator/4.4/psoc creator/import/gnu/arm/5.4.1/bin/../lib/gcc/arm-none-eabi/5.4.1/../../../../arm-none-eabi/lib/armv6-m\libg_nano.a(lib_a-memmove.o)
                              c:/program files (x86)/cypress/psoc creator/4.4/psoc creator/import/gnu/arm/5.4.1/bin/../lib/gcc/arm-none-eabi/5.4.1/../../../../arm-none-eabi/lib/armv6-m\libg_nano.a(lib_a-fvwrite.o) (memmove)
c:/program files (x86)/cypress/psoc creator/4.4/psoc creator/import/gnu/arm/5.4.1/bin/../lib/gcc/arm-none-eabi/5.4.1/../../../../arm-none-eabi/lib/armv6-m\libg_nano.a(lib_a-mlock.o)
                              c:/program files (x86)/cypress/psoc creator/4.4/psoc creator/import/gnu/arm/5.4.1/bin/../lib/gcc/arm-none-eabi/5.4.1/../../../../arm-none-eabi/lib/armv6-m\libg_nano.a(lib_a-nano-freer.o) (__malloc_lock)
c:/program files (x86)/cypress/psoc creator/4.4/psoc creator/import/gnu/arm/5.4.1/bin/../lib/gcc/arm-none-eabi/5.4.1/../../../../arm-none-eabi/lib/armv6-m\libg_nano.a(lib_a-nano-reallocr.o)
                              c:/program files (x86)/cypress/psoc creator/4.4/psoc creator/import/gnu/arm/5.4.1/bin/../lib/gcc/arm-none-eabi/5.4.1/../../../../arm-none-eabi/lib/armv6-m\libg_nano.a(lib_a-fvwrite.o) (_realloc_r)
c:/program files (x86)/cypress/psoc creator/4.4/psoc creator/import/gnu/arm/5.4.1/bin/../lib/gcc/arm-none-eabi/5.4.1/../../../../arm-none-eabi/lib/armv6-m\libg_nano.a(lib_a-readr.o)
                              c:/program files (x86)/cypress/psoc creator/4.4/psoc creator/import/gnu/arm/5.4.1/bin/../lib/gcc/arm-none-eabi/5.4.1/../../../../arm-none-eabi/lib/armv6-m\libg_nano.a(lib_a-stdio.o) (_read_r)
c:/program files (x86)/cypress/psoc creator/4.4/psoc creator/import/gnu/arm/5.4.1/bin/../lib/gcc/arm-none-eabi/5.4.1/../../../../arm-none-eabi/lib/armv6-m\libg_nano.a(lib_a-reent.o)
                              c:/program files (x86)/cypress/psoc creator/4.4/psoc creator/import/gnu/arm/5.4.1/bin/../lib/gcc/arm-none-eabi/5.4.1/../../../../arm-none-eabi/lib/armv6-m\libg_nano.a(lib_a-sbrkr.o) (errno)
c:/program files (x86)/cypress/psoc creator/4.4/psoc creator/import/gnu/arm/5.4.1/bin/../lib/gcc/arm-none-eabi/5.4.1/../../../../arm-none-eabi/lib/armv6-m\libg_nano.a(lib_a-nano-msizer.o)
                              c:/program files (x86)/cypress/psoc creator/4.4/psoc creator/import/gnu/arm/5.4.1/bin/../lib/gcc/arm-none-eabi/5.4.1/../../../../arm-none-eabi/lib/armv6-m\libg_nano.a(lib_a-nano-reallocr.o) (_malloc_usable_size_r)
c:/program files (x86)/cypress/psoc creator/4.4/psoc creator/import/gnu/arm/5.4.1/bin/../lib/gcc/arm-none-eabi/5.4.1/armv6-m\libgcc.a(_thumb1_case_uqi.o)
                              c:/program files (x86)/cypress/psoc creator/4.4/psoc creator/import/gnu/arm/5.4.1/bin/../lib/gcc/arm-none-eabi/5.4.1/../../../../arm-none-eabi/lib/armv6-m\libg_nano.a(lib_a-strtod.o) (__gnu_thumb1_case_uqi)
c:/program files (x86)/cypress/psoc creator/4.4/psoc creator/import/gnu/arm/5.4.1/bin/../lib/gcc/arm-none-eabi/5.4.1/armv6-m\libgcc.a(adddf3.o)
                              c:/program files (x86)/cypress/psoc creator/4.4/psoc creator/import/gnu/arm/5.4.1/bin/../lib/gcc/arm-none-eabi/5.4.1/../../../../arm-none-eabi/lib/armv6-m\libg_nano.a(lib_a-strtod.o) (__aeabi_dadd)
c:/program files (x86)/cypress/psoc creator/4.4/psoc creator/import/gnu/arm/5.4.1/bin/../lib/gcc/arm-none-eabi/5.4.1/armv6-m\libgcc.a(unorddf2.o)
                              c:/program files (x86)/cypress/psoc creator/4.4/psoc creator/import/gnu/arm/5.4.1/bin/../lib/gcc/arm-none-eabi/5.4.1/../../../../arm-none-eabi/lib/armv6-m\libg_nano.a(lib_a-strtod.o) (__aeabi_dcmpun)
c:/program files (x86)/cypress/psoc creator/4.4/psoc creator/import/gnu/arm/5.4.1/bin/../lib/gcc/arm-none-eabi/5.4.1/armv6-m\libgcc.a(floatsidf.o)
                              c:/program files (x86)/cypress/psoc creator/4.4/psoc creator/import/gnu/arm/5.4.1/bin/../lib/gcc/arm-none-eabi/5.4.1/../../../../arm-none-eabi/lib/armv6-m\libg_nano.a(lib_a-strtod.o) (__aeabi_i2d)
c:/program files (x86)/cypress/psoc creator/4.4/psoc creator/import/gnu/arm/5.4.1/bin/../lib/gcc/arm-none-eabi/5.4.1/../../../../arm-none-eabi/lib/armv6-m\libnosys.a(close.o)
                              c:/program files (x86)/cypress/psoc creator/4.4/psoc creator/import/gnu/arm/5.4.1/bin/../lib/gcc/arm-none-eabi/5.4.1/../../../../arm-none-eabi/lib/armv6-m\libg_nano.a(lib_a-closer.o) (_close)
c:/program files (x86)/cypress/psoc creator/4.4/psoc creator/import/gnu/arm/5.4.1/bin/../lib/gcc/arm-none-eabi/5.4.1/../../../../arm-none-eabi/lib/armv6-m\libnosys.a(fstat.o)
                              c:/program files (x86)/cypress/psoc creator/4.4/psoc creator/import/gnu/arm/5.4.1/bin/../lib/gcc/arm-none-eabi/5.4.1/../../../../arm-none-eabi/lib/armv6-m\libg_nano.a(lib_a-fstatr.o) (_fstat)
c:/program files (x86)/cypress/psoc creator/4.4/psoc creator/import/gnu/arm/5.4.1/bin/../lib/gcc/arm-none-eabi/5.4.1/../../../../arm-none-eabi/lib/armv6-m\libnosys.a(isatty.o)
                              c:/program files (x86)/cypress/psoc creator/4.4/psoc creator/import/gnu/arm/5.4.1/bin/../lib/gcc/arm-none-eabi/5.4.1/../../../../arm-none-eabi/lib/armv6-m\libg_nano.a(lib_a-isattyr.o) (_isatty)
c:/program files (x86)/cypress/psoc creator/4.4/psoc creator/import/gnu/arm/5.4.1/bin/../lib/gcc/arm-none-eabi/5.4.1/../../../../arm-none-eabi/lib/armv6-m\libnosys.a(lseek.o)
                              c:/program files (x86)/cypress/psoc creator/4.4/psoc creator/import/gnu/arm/5.4.1/bin/../lib/gcc/arm-none-eabi/5.4.1/../../../../arm-none-eabi/lib/armv6-m\libg_nano.a(lib_a-lseekr.o) (_lseek)
c:/program files (x86)/cypress/psoc creator/4.4/psoc creator/import/gnu/arm/5.4.1/bin/../lib/gcc/arm-none-eabi/5.4.1/../../../../arm-none-eabi/lib/armv6-m\libnosys.a(read.o)
                              c:/program files (x86)/cypress/psoc creator/4.4/psoc creator/import/gnu/arm/5.4.1/bin/../lib/gcc/arm-none-eabi/5.4.1/../../../../arm-none-eabi/lib/armv6-m\libg_nano.a(lib_a-readr.o) (_read)

Allocating common symbols
Common symbol       size              file

rot                 0x1               .\CortexM0\ARM_GCC_541\Debug\main.o
b                   0x44              .\CortexM0\ARM_GCC_541\Debug\main.o
p                   0x38              .\CortexM0\ARM_GCC_541\Debug\main.o
errno               0x4               c:/program files (x86)/cypress/psoc creator/4.4/psoc creator/import/gnu/arm/5.4.1/bin/../lib/gcc/arm-none-eabi/5.4.1/../../../../arm-none-eabi/lib/armv6-m\libg_nano.a(lib_a-reent.o)
prevmaintim         0x4               .\CortexM0\ARM_GCC_541\Debug\main.o
intptr              0x4               .\CortexM0\ARM_GCC_541\Debug\main.o
prevpwmtim          0x4               .\CortexM0\ARM_GCC_541\Debug\main.o
i2cfloat            0x4               .\CortexM0\ARM_GCC_541\Debug\main.o
Maxcount            0x4               .\CortexM0\ARM_GCC_541\Debug\main.o
i2cavail            0x1               .\CortexM0\ARM_GCC_541\Debug\main.o
startpulse          0x1               .\CortexM0\ARM_GCC_541\Debug\main.o
toberead            0x4               .\CortexM0\ARM_GCC_541\Debug\main.o
i2ccmd              0x1               .\CortexM0\ARM_GCC_541\Debug\main.o

Discarded input sections

 .text          0x00000000        0x0 c:/program files (x86)/cypress/psoc creator/4.4/psoc creator/import/gnu/arm/5.4.1/bin/../lib/gcc/arm-none-eabi/5.4.1/armv6-m/crti.o
 .data          0x00000000        0x0 c:/program files (x86)/cypress/psoc creator/4.4/psoc creator/import/gnu/arm/5.4.1/bin/../lib/gcc/arm-none-eabi/5.4.1/armv6-m/crti.o
 .bss           0x00000000        0x0 c:/program files (x86)/cypress/psoc creator/4.4/psoc creator/import/gnu/arm/5.4.1/bin/../lib/gcc/arm-none-eabi/5.4.1/armv6-m/crti.o
 .data          0x00000000        0x4 c:/program files (x86)/cypress/psoc creator/4.4/psoc creator/import/gnu/arm/5.4.1/bin/../lib/gcc/arm-none-eabi/5.4.1/armv6-m/crtbegin.o
 .text          0x00000000       0x78 c:/program files (x86)/cypress/psoc creator/4.4/psoc creator/import/gnu/arm/5.4.1/bin/../lib/gcc/arm-none-eabi/5.4.1/../../../../arm-none-eabi/lib/armv6-m/crt0.o
 .data          0x00000000        0x0 c:/program files (x86)/cypress/psoc creator/4.4/psoc creator/import/gnu/arm/5.4.1/bin/../lib/gcc/arm-none-eabi/5.4.1/../../../../arm-none-eabi/lib/armv6-m/crt0.o
 .bss           0x00000000        0x0 c:/program files (x86)/cypress/psoc creator/4.4/psoc creator/import/gnu/arm/5.4.1/bin/../lib/gcc/arm-none-eabi/5.4.1/../../../../arm-none-eabi/lib/armv6-m/crt0.o
 .ARM.extab     0x00000000        0x0 c:/program files (x86)/cypress/psoc creator/4.4/psoc creator/import/gnu/arm/5.4.1/bin/../lib/gcc/arm-none-eabi/5.4.1/../../../../arm-none-eabi/lib/armv6-m/crt0.o
 .ARM.exidx     0x00000000        0x8 c:/program files (x86)/cypress/psoc creator/4.4/psoc creator/import/gnu/arm/5.4.1/bin/../lib/gcc/arm-none-eabi/5.4.1/../../../../arm-none-eabi/lib/armv6-m/crt0.o
 .text          0x00000000        0x0 .\CortexM0\ARM_GCC_541\Debug\main.o
 .text.stopmotorA
                0x00000000        0xc .\CortexM0\ARM_GCC_541\Debug\main.o
 .text.stopmotorB
                0x00000000        0xc .\CortexM0\ARM_GCC_541\Debug\main.o
 .text.stopmotorC
                0x00000000        0xc .\CortexM0\ARM_GCC_541\Debug\main.o
 .text.setcomtable
                0x00000000       0x14 .\CortexM0\ARM_GCC_541\Debug\main.o
 .text.setseqCW
                0x00000000       0x14 .\CortexM0\ARM_GCC_541\Debug\main.o
 .text.setseqCCW
                0x00000000       0x18 .\CortexM0\ARM_GCC_541\Debug\main.o
 .text.rpm_btn_int
                0x00000000       0x3c .\CortexM0\ARM_GCC_541\Debug\main.o
 .text.print    0x00000000       0x48 .\CortexM0\ARM_GCC_541\Debug\main.o
 .text.bin      0x00000000       0x24 .\CortexM0\ARM_GCC_541\Debug\main.o
 .text          0x00000000        0x0 .\CortexM0\ARM_GCC_541\Debug\cyfitter_cfg.o
 .data          0x00000000        0x0 .\CortexM0\ARM_GCC_541\Debug\cyfitter_cfg.o
 .bss           0x00000000        0x0 .\CortexM0\ARM_GCC_541\Debug\cyfitter_cfg.o
 .text          0x00000000        0x0 .\CortexM0\ARM_GCC_541\Debug\cymetadata.o
 .data          0x00000000        0x0 .\CortexM0\ARM_GCC_541\Debug\cymetadata.o
 .bss           0x00000000        0x0 .\CortexM0\ARM_GCC_541\Debug\cymetadata.o
 .text          0x00000000        0x0 .\CortexM0\ARM_GCC_541\Debug\Cm0Start.o
 .bss           0x00000000        0x0 .\CortexM0\ARM_GCC_541\Debug\Cm0Start.o
 .text._exit    0x00000000        0xc .\CortexM0\ARM_GCC_541\Debug\Cm0Start.o
 .text          0x00000000        0x0 .\CortexM0\ARM_GCC_541\Debug\BLDC Motor.a(INHA.o)
 .data          0x00000000        0x0 .\CortexM0\ARM_GCC_541\Debug\BLDC Motor.a(INHA.o)
 .bss           0x00000000        0x0 .\CortexM0\ARM_GCC_541\Debug\BLDC Motor.a(INHA.o)
 .text.INHA_SetDriveMode
                0x00000000       0x18 .\CortexM0\ARM_GCC_541\Debug\BLDC Motor.a(INHA.o)
 .text.INHA_Read
                0x00000000       0x10 .\CortexM0\ARM_GCC_541\Debug\BLDC Motor.a(INHA.o)
 .text.INHA_ReadDataReg
                0x00000000       0x10 .\CortexM0\ARM_GCC_541\Debug\BLDC Motor.a(INHA.o)
 .text.INHA_SetInterruptMode
                0x00000000       0x14 .\CortexM0\ARM_GCC_541\Debug\BLDC Motor.a(INHA.o)
 .text.INHA_ClearInterrupt
                0x00000000       0x14 .\CortexM0\ARM_GCC_541\Debug\BLDC Motor.a(INHA.o)
 .text          0x00000000        0x0 .\CortexM0\ARM_GCC_541\Debug\BLDC Motor.a(INHB.o)
 .data          0x00000000        0x0 .\CortexM0\ARM_GCC_541\Debug\BLDC Motor.a(INHB.o)
 .bss           0x00000000        0x0 .\CortexM0\ARM_GCC_541\Debug\BLDC Motor.a(INHB.o)
 .text.INHB_SetDriveMode
                0x00000000       0x18 .\CortexM0\ARM_GCC_541\Debug\BLDC Motor.a(INHB.o)
 .text.INHB_Read
                0x00000000       0x10 .\CortexM0\ARM_GCC_541\Debug\BLDC Motor.a(INHB.o)
 .text.INHB_ReadDataReg
                0x00000000       0x10 .\CortexM0\ARM_GCC_541\Debug\BLDC Motor.a(INHB.o)
 .text.INHB_SetInterruptMode
                0x00000000       0x14 .\CortexM0\ARM_GCC_541\Debug\BLDC Motor.a(INHB.o)
 .text.INHB_ClearInterrupt
                0x00000000       0x14 .\CortexM0\ARM_GCC_541\Debug\BLDC Motor.a(INHB.o)
 .text          0x00000000        0x0 .\CortexM0\ARM_GCC_541\Debug\BLDC Motor.a(INHC.o)
 .data          0x00000000        0x0 .\CortexM0\ARM_GCC_541\Debug\BLDC Motor.a(INHC.o)
 .bss           0x00000000        0x0 .\CortexM0\ARM_GCC_541\Debug\BLDC Motor.a(INHC.o)
 .text.INHC_SetDriveMode
                0x00000000       0x18 .\CortexM0\ARM_GCC_541\Debug\BLDC Motor.a(INHC.o)
 .text.INHC_Read
                0x00000000       0x10 .\CortexM0\ARM_GCC_541\Debug\BLDC Motor.a(INHC.o)
 .text.INHC_ReadDataReg
                0x00000000       0x10 .\CortexM0\ARM_GCC_541\Debug\BLDC Motor.a(INHC.o)
 .text.INHC_SetInterruptMode
                0x00000000       0x14 .\CortexM0\ARM_GCC_541\Debug\BLDC Motor.a(INHC.o)
 .text.INHC_ClearInterrupt
                0x00000000       0x14 .\CortexM0\ARM_GCC_541\Debug\BLDC Motor.a(INHC.o)
 .text          0x00000000        0x0 .\CortexM0\ARM_GCC_541\Debug\BLDC Motor.a(CyLib.o)
 .bss           0x00000000       0x18 .\CortexM0\ARM_GCC_541\Debug\BLDC Motor.a(CyLib.o)
 .text.CySysClkImoStart
                0x00000000       0x14 .\CortexM0\ARM_GCC_541\Debug\BLDC Motor.a(CyLib.o)
 .text.CySysClkImoStop
                0x00000000       0x18 .\CortexM0\ARM_GCC_541\Debug\BLDC Motor.a(CyLib.o)
 .text.CySysClkWriteHfclkDirect
                0x00000000       0x20 .\CortexM0\ARM_GCC_541\Debug\BLDC Motor.a(CyLib.o)
 .text.CySysEnablePumpClock
                0x00000000       0x38 .\CortexM0\ARM_GCC_541\Debug\BLDC Motor.a(CyLib.o)
 .text.CySysClkGetSysclkSource
                0x00000000       0x1c .\CortexM0\ARM_GCC_541\Debug\BLDC Motor.a(CyLib.o)
 .text.CySysClkWriteSysclkDiv
                0x00000000       0x30 .\CortexM0\ARM_GCC_541\Debug\BLDC Motor.a(CyLib.o)
 .text.CySysLvdDisable
                0x00000000       0x20 .\CortexM0\ARM_GCC_541\Debug\BLDC Motor.a(CyLib.o)
 .text.CySysLvdGetInterruptSource
                0x00000000       0x10 .\CortexM0\ARM_GCC_541\Debug\BLDC Motor.a(CyLib.o)
 .text.CySysLvdClearInterrupt
                0x00000000        0xc .\CortexM0\ARM_GCC_541\Debug\BLDC Motor.a(CyLib.o)
 .text.CySysGetResetReason
                0x00000000       0x14 .\CortexM0\ARM_GCC_541\Debug\BLDC Motor.a(CyLib.o)
 .text.CyDisableInts
                0x00000000       0x10 .\CortexM0\ARM_GCC_541\Debug\BLDC Motor.a(CyLib.o)
 .text.CyEnableInts
                0x00000000        0xc .\CortexM0\ARM_GCC_541\Debug\BLDC Motor.a(CyLib.o)
 .text.CyIntGetState
                0x00000000       0x18 .\CortexM0\ARM_GCC_541\Debug\BLDC Motor.a(CyLib.o)
 .text.CyIntDisable
                0x00000000       0x14 .\CortexM0\ARM_GCC_541\Debug\BLDC Motor.a(CyLib.o)
 .text.CyIntSetPending
                0x00000000       0x14 .\CortexM0\ARM_GCC_541\Debug\BLDC Motor.a(CyLib.o)
 .text.CyIntClearPending
                0x00000000       0x14 .\CortexM0\ARM_GCC_541\Debug\BLDC Motor.a(CyLib.o)
 .text.CyIntSetSysVector
                0x00000000       0x20 .\CortexM0\ARM_GCC_541\Debug\BLDC Motor.a(CyLib.o)
 .text.CyIntGetSysVector
                0x00000000       0x1c .\CortexM0\ARM_GCC_541\Debug\BLDC Motor.a(CyLib.o)
 .text.CyIntGetVector
                0x00000000       0x20 .\CortexM0\ARM_GCC_541\Debug\BLDC Motor.a(CyLib.o)
 .text.CyIntSetPriority
                0x00000000       0x4c .\CortexM0\ARM_GCC_541\Debug\BLDC Motor.a(CyLib.o)
 .text.CyIntGetPriority
                0x00000000       0x2c .\CortexM0\ARM_GCC_541\Debug\BLDC Motor.a(CyLib.o)
 .text.CySoftwareReset
                0x00000000       0x18 .\CortexM0\ARM_GCC_541\Debug\BLDC Motor.a(CyLib.o)
 .text.CyDelayUs
                0x00000000       0x14 .\CortexM0\ARM_GCC_541\Debug\BLDC Motor.a(CyLib.o)
 .text.CySysLvdEnable
                0x00000000       0x44 .\CortexM0\ARM_GCC_541\Debug\BLDC Motor.a(CyLib.o)
 .text.CyDelayFreq
                0x00000000       0x4c .\CortexM0\ARM_GCC_541\Debug\BLDC Motor.a(CyLib.o)
 .text.CySysTickStop
                0x00000000       0x10 .\CortexM0\ARM_GCC_541\Debug\BLDC Motor.a(CyLib.o)
 .text.CySysTickEnableInterrupt
                0x00000000       0x10 .\CortexM0\ARM_GCC_541\Debug\BLDC Motor.a(CyLib.o)
 .text.CySysTickEnable
                0x00000000       0x18 .\CortexM0\ARM_GCC_541\Debug\BLDC Motor.a(CyLib.o)
 .text.CySysTickDisableInterrupt
                0x00000000       0x10 .\CortexM0\ARM_GCC_541\Debug\BLDC Motor.a(CyLib.o)
 .text.CySysTickSetReload
                0x00000000       0x10 .\CortexM0\ARM_GCC_541\Debug\BLDC Motor.a(CyLib.o)
 .text.CySysTickGetReload
                0x00000000       0x10 .\CortexM0\ARM_GCC_541\Debug\BLDC Motor.a(CyLib.o)
 .text.CySysTickGetValue
                0x00000000       0x10 .\CortexM0\ARM_GCC_541\Debug\BLDC Motor.a(CyLib.o)
 .text.CySysTickSetClockSource
                0x00000000       0x20 .\CortexM0\ARM_GCC_541\Debug\BLDC Motor.a(CyLib.o)
 .text.CySysTickGetClockSource
                0x00000000       0x10 .\CortexM0\ARM_GCC_541\Debug\BLDC Motor.a(CyLib.o)
 .text.CySysTickGetCountFlag
                0x00000000       0x10 .\CortexM0\ARM_GCC_541\Debug\BLDC Motor.a(CyLib.o)
 .text.CySysTickServiceCallbacks
                0x00000000       0x28 .\CortexM0\ARM_GCC_541\Debug\BLDC Motor.a(CyLib.o)
 .text.CySysTickClear
                0x00000000        0xc .\CortexM0\ARM_GCC_541\Debug\BLDC Motor.a(CyLib.o)
 .text.CySysTickInit
                0x00000000       0x44 .\CortexM0\ARM_GCC_541\Debug\BLDC Motor.a(CyLib.o)
 .text.CySysTickStart
                0x00000000       0x20 .\CortexM0\ARM_GCC_541\Debug\BLDC Motor.a(CyLib.o)
 .text.CySysTickSetCallback
                0x00000000       0x10 .\CortexM0\ARM_GCC_541\Debug\BLDC Motor.a(CyLib.o)
 .text.CySysTickGetCallback
                0x00000000        0xc .\CortexM0\ARM_GCC_541\Debug\BLDC Motor.a(CyLib.o)
 .text.CyGetUniqueId
                0x00000000       0x70 .\CortexM0\ARM_GCC_541\Debug\BLDC Motor.a(CyLib.o)
 .text.CySysSetRamAccessArbPriority
                0x00000000       0x20 .\CortexM0\ARM_GCC_541\Debug\BLDC Motor.a(CyLib.o)
 .text.CySysSetFlashAccessArbPriority
                0x00000000       0x20 .\CortexM0\ARM_GCC_541\Debug\BLDC Motor.a(CyLib.o)
 .text.CySysSetDmacAccessArbPriority
                0x00000000       0x20 .\CortexM0\ARM_GCC_541\Debug\BLDC Motor.a(CyLib.o)
 .text.CySysSetPeripheralAccessArbPriority
                0x00000000       0x68 .\CortexM0\ARM_GCC_541\Debug\BLDC Motor.a(CyLib.o)
 .text          0x00000000        0x0 .\CortexM0\ARM_GCC_541\Debug\BLDC Motor.a(CyLFClk.o)
 .text.CySysClkIloEnabled
                0x00000000       0x14 .\CortexM0\ARM_GCC_541\Debug\BLDC Motor.a(CyLFClk.o)
 .text.CySysClkGetLfclkSource
                0x00000000       0x10 .\CortexM0\ARM_GCC_541\Debug\BLDC Motor.a(CyLFClk.o)
 .text.CySysClkIloStart
                0x00000000       0x14 .\CortexM0\ARM_GCC_541\Debug\BLDC Motor.a(CyLFClk.o)
 .text.CySysClkIloStartMeasurement
                0x00000000       0x5c .\CortexM0\ARM_GCC_541\Debug\BLDC Motor.a(CyLFClk.o)
 .text.CySysClkIloStopMeasurement
                0x00000000       0x14 .\CortexM0\ARM_GCC_541\Debug\BLDC Motor.a(CyLFClk.o)
 .text.CySysClkIloCompensate
                0x00000000      0x104 .\CortexM0\ARM_GCC_541\Debug\BLDC Motor.a(CyLFClk.o)
 .text.CySysClkIloUpdateTrimReg
                0x00000000       0xa8 .\CortexM0\ARM_GCC_541\Debug\BLDC Motor.a(CyLFClk.o)
 .text.CySysClkIloTrim
                0x00000000       0xd8 .\CortexM0\ARM_GCC_541\Debug\BLDC Motor.a(CyLFClk.o)
 .text.CySysClkIloRestoreFactoryTrim
                0x00000000       0x30 .\CortexM0\ARM_GCC_541\Debug\BLDC Motor.a(CyLFClk.o)
 .text.CySysClkWcoStart
                0x00000000       0x40 .\CortexM0\ARM_GCC_541\Debug\BLDC Motor.a(CyLFClk.o)
 .text.CySysClkWcoSetPowerMode
                0x00000000       0x4c .\CortexM0\ARM_GCC_541\Debug\BLDC Motor.a(CyLFClk.o)
 .text.CySysClkWcoClockOutSelect
                0x00000000       0x2c .\CortexM0\ARM_GCC_541\Debug\BLDC Motor.a(CyLFClk.o)
 .text.CySysWdtGetEnabledStatus
                0x00000000       0x24 .\CortexM0\ARM_GCC_541\Debug\BLDC Motor.a(CyLFClk.o)
 .text.CySysWdtSetMode
                0x00000000       0x38 .\CortexM0\ARM_GCC_541\Debug\BLDC Motor.a(CyLFClk.o)
 .text.CySysClkLfclkPosedgeRestore
                0x00000000       0x2c .\CortexM0\ARM_GCC_541\Debug\BLDC Motor.a(CyLFClk.o)
 .text.CySysWdtGetMode
                0x00000000       0x14 .\CortexM0\ARM_GCC_541\Debug\BLDC Motor.a(CyLFClk.o)
 .text.CySysWdtSetClearOnMatch
                0x00000000       0x34 .\CortexM0\ARM_GCC_541\Debug\BLDC Motor.a(CyLFClk.o)
 .text.CySysWdtGetClearOnMatch
                0x00000000       0x24 .\CortexM0\ARM_GCC_541\Debug\BLDC Motor.a(CyLFClk.o)
 .text.CySysWdtEnable
                0x00000000       0x3c .\CortexM0\ARM_GCC_541\Debug\BLDC Motor.a(CyLFClk.o)
 .text.CySysWdtDisable
                0x00000000       0x44 .\CortexM0\ARM_GCC_541\Debug\BLDC Motor.a(CyLFClk.o)
 .text.CySysWdtSetCascade
                0x00000000       0x34 .\CortexM0\ARM_GCC_541\Debug\BLDC Motor.a(CyLFClk.o)
 .text.CySysWdtGetCascade
                0x00000000       0x14 .\CortexM0\ARM_GCC_541\Debug\BLDC Motor.a(CyLFClk.o)
 .text.CySysWdtSetMatch
                0x00000000       0x54 .\CortexM0\ARM_GCC_541\Debug\BLDC Motor.a(CyLFClk.o)
 .text.CySysWdtSetToggleBit
                0x00000000       0x30 .\CortexM0\ARM_GCC_541\Debug\BLDC Motor.a(CyLFClk.o)
 .text.CySysWdtGetToggleBit
                0x00000000       0x10 .\CortexM0\ARM_GCC_541\Debug\BLDC Motor.a(CyLFClk.o)
 .text.CySysWdtGetMatch
                0x00000000       0x20 .\CortexM0\ARM_GCC_541\Debug\BLDC Motor.a(CyLFClk.o)
 .text.CySysWdtGetCount
                0x00000000       0x3c .\CortexM0\ARM_GCC_541\Debug\BLDC Motor.a(CyLFClk.o)
 .text.CySysClkLfclkPosedgeCatch
                0x00000000       0x74 .\CortexM0\ARM_GCC_541\Debug\BLDC Motor.a(CyLFClk.o)
 .text.CySysClkIloStop
                0x00000000       0x4c .\CortexM0\ARM_GCC_541\Debug\BLDC Motor.a(CyLFClk.o)
 .text.CySysClkSetLfclkSource
                0x00000000       0x38 .\CortexM0\ARM_GCC_541\Debug\BLDC Motor.a(CyLFClk.o)
 .text.CySysClkWcoStop
                0x00000000       0x48 .\CortexM0\ARM_GCC_541\Debug\BLDC Motor.a(CyLFClk.o)
 .text.CySysWdtGetInterruptSource
                0x00000000       0x14 .\CortexM0\ARM_GCC_541\Debug\BLDC Motor.a(CyLFClk.o)
 .text.CySysWdtResetCounters
                0x00000000       0x20 .\CortexM0\ARM_GCC_541\Debug\BLDC Motor.a(CyLFClk.o)
 .text.CySysWdtSetInterruptCallback
                0x00000000       0x20 .\CortexM0\ARM_GCC_541\Debug\BLDC Motor.a(CyLFClk.o)
 .text.CySysWdtGetInterruptCallback
                0x00000000       0x20 .\CortexM0\ARM_GCC_541\Debug\BLDC Motor.a(CyLFClk.o)
 .text.CySysWdtEnableCounterIsr
                0x00000000       0x34 .\CortexM0\ARM_GCC_541\Debug\BLDC Motor.a(CyLFClk.o)
 .text.CySysWdtDisableCounterIsr
                0x00000000       0x28 .\CortexM0\ARM_GCC_541\Debug\BLDC Motor.a(CyLFClk.o)
 .text.CySysWatchdogFeed
                0x00000000       0x60 .\CortexM0\ARM_GCC_541\Debug\BLDC Motor.a(CyLFClk.o)
 .text.CySysTimerDelayUntilMatch
                0x00000000       0x6c .\CortexM0\ARM_GCC_541\Debug\BLDC Motor.a(CyLFClk.o)
 .text.CySysTimerDelay
                0x00000000       0x3c .\CortexM0\ARM_GCC_541\Debug\BLDC Motor.a(CyLFClk.o)
 .rodata        0x00000000        0xc .\CortexM0\ARM_GCC_541\Debug\BLDC Motor.a(CyLFClk.o)
 .text          0x00000000        0x0 .\CortexM0\ARM_GCC_541\Debug\BLDC Motor.a(PWM_A.o)
 .data          0x00000000        0x0 .\CortexM0\ARM_GCC_541\Debug\BLDC Motor.a(PWM_A.o)
 .text.PWM_A_Stop
                0x00000000       0x1c .\CortexM0\ARM_GCC_541\Debug\BLDC Motor.a(PWM_A.o)
 .text.PWM_A_SetMode
                0x00000000       0x28 .\CortexM0\ARM_GCC_541\Debug\BLDC Motor.a(PWM_A.o)
 .text.PWM_A_SetQDMode
                0x00000000       0x28 .\CortexM0\ARM_GCC_541\Debug\BLDC Motor.a(PWM_A.o)
 .text.PWM_A_SetPrescaler
                0x00000000       0x28 .\CortexM0\ARM_GCC_541\Debug\BLDC Motor.a(PWM_A.o)
 .text.PWM_A_SetOneShot
                0x00000000       0x30 .\CortexM0\ARM_GCC_541\Debug\BLDC Motor.a(PWM_A.o)
 .text.PWM_A_SetPWMMode
                0x00000000       0x10 .\CortexM0\ARM_GCC_541\Debug\BLDC Motor.a(PWM_A.o)
 .text.PWM_A_SetPWMSyncKill
                0x00000000       0x28 .\CortexM0\ARM_GCC_541\Debug\BLDC Motor.a(PWM_A.o)
 .text.PWM_A_SetPWMStopOnKill
                0x00000000       0x28 .\CortexM0\ARM_GCC_541\Debug\BLDC Motor.a(PWM_A.o)
 .text.PWM_A_SetPWMDeadTime
                0x00000000       0x2c .\CortexM0\ARM_GCC_541\Debug\BLDC Motor.a(PWM_A.o)
 .text.PWM_A_SetPWMInvert
                0x00000000       0x28 .\CortexM0\ARM_GCC_541\Debug\BLDC Motor.a(PWM_A.o)
 .text.PWM_A_ReadCounter
                0x00000000       0x10 .\CortexM0\ARM_GCC_541\Debug\BLDC Motor.a(PWM_A.o)
 .text.PWM_A_SetCounterMode
                0x00000000       0x28 .\CortexM0\ARM_GCC_541\Debug\BLDC Motor.a(PWM_A.o)
 .text.PWM_A_SetCompareSwap
                0x00000000       0x24 .\CortexM0\ARM_GCC_541\Debug\BLDC Motor.a(PWM_A.o)
 .text.PWM_A_WritePeriodBuf
                0x00000000       0x10 .\CortexM0\ARM_GCC_541\Debug\BLDC Motor.a(PWM_A.o)
 .text.PWM_A_ReadPeriodBuf
                0x00000000       0x10 .\CortexM0\ARM_GCC_541\Debug\BLDC Motor.a(PWM_A.o)
 .text.PWM_A_SetPeriodSwap
                0x00000000       0x28 .\CortexM0\ARM_GCC_541\Debug\BLDC Motor.a(PWM_A.o)
 .text.PWM_A_ReadCompare
                0x00000000       0x10 .\CortexM0\ARM_GCC_541\Debug\BLDC Motor.a(PWM_A.o)
 .text.PWM_A_WriteCompareBuf
                0x00000000       0x10 .\CortexM0\ARM_GCC_541\Debug\BLDC Motor.a(PWM_A.o)
 .text.PWM_A_ReadCompareBuf
                0x00000000       0x10 .\CortexM0\ARM_GCC_541\Debug\BLDC Motor.a(PWM_A.o)
 .text.PWM_A_ReadCapture
                0x00000000       0x10 .\CortexM0\ARM_GCC_541\Debug\BLDC Motor.a(PWM_A.o)
 .text.PWM_A_ReadCaptureBuf
                0x00000000       0x10 .\CortexM0\ARM_GCC_541\Debug\BLDC Motor.a(PWM_A.o)
 .text.PWM_A_SetCaptureMode
                0x00000000       0x24 .\CortexM0\ARM_GCC_541\Debug\BLDC Motor.a(PWM_A.o)
 .text.PWM_A_SetReloadMode
                0x00000000       0x24 .\CortexM0\ARM_GCC_541\Debug\BLDC Motor.a(PWM_A.o)
 .text.PWM_A_SetStartMode
                0x00000000       0x28 .\CortexM0\ARM_GCC_541\Debug\BLDC Motor.a(PWM_A.o)
 .text.PWM_A_SetStopMode
                0x00000000       0x24 .\CortexM0\ARM_GCC_541\Debug\BLDC Motor.a(PWM_A.o)
 .text.PWM_A_SetCountMode
                0x00000000       0x24 .\CortexM0\ARM_GCC_541\Debug\BLDC Motor.a(PWM_A.o)
 .text.PWM_A_ReadStatus
                0x00000000       0x14 .\CortexM0\ARM_GCC_541\Debug\BLDC Motor.a(PWM_A.o)
 .text.PWM_A_GetInterruptSourceMasked
                0x00000000        0xc .\CortexM0\ARM_GCC_541\Debug\BLDC Motor.a(PWM_A.o)
 .text.PWM_A_GetInterruptSource
                0x00000000        0xc .\CortexM0\ARM_GCC_541\Debug\BLDC Motor.a(PWM_A.o)
 .text.PWM_A_ClearInterrupt
                0x00000000        0xc .\CortexM0\ARM_GCC_541\Debug\BLDC Motor.a(PWM_A.o)
 .text.PWM_A_SetInterrupt
                0x00000000        0xc .\CortexM0\ARM_GCC_541\Debug\BLDC Motor.a(PWM_A.o)
 .text          0x00000000        0x0 .\CortexM0\ARM_GCC_541\Debug\BLDC Motor.a(PWM_B.o)
 .data          0x00000000        0x0 .\CortexM0\ARM_GCC_541\Debug\BLDC Motor.a(PWM_B.o)
 .text.PWM_B_Stop
                0x00000000       0x1c .\CortexM0\ARM_GCC_541\Debug\BLDC Motor.a(PWM_B.o)
 .text.PWM_B_SetMode
                0x00000000       0x28 .\CortexM0\ARM_GCC_541\Debug\BLDC Motor.a(PWM_B.o)
 .text.PWM_B_SetQDMode
                0x00000000       0x28 .\CortexM0\ARM_GCC_541\Debug\BLDC Motor.a(PWM_B.o)
 .text.PWM_B_SetPrescaler
                0x00000000       0x28 .\CortexM0\ARM_GCC_541\Debug\BLDC Motor.a(PWM_B.o)
 .text.PWM_B_SetOneShot
                0x00000000       0x30 .\CortexM0\ARM_GCC_541\Debug\BLDC Motor.a(PWM_B.o)
 .text.PWM_B_SetPWMMode
                0x00000000       0x10 .\CortexM0\ARM_GCC_541\Debug\BLDC Motor.a(PWM_B.o)
 .text.PWM_B_SetPWMSyncKill
                0x00000000       0x28 .\CortexM0\ARM_GCC_541\Debug\BLDC Motor.a(PWM_B.o)
 .text.PWM_B_SetPWMStopOnKill
                0x00000000       0x28 .\CortexM0\ARM_GCC_541\Debug\BLDC Motor.a(PWM_B.o)
 .text.PWM_B_SetPWMDeadTime
                0x00000000       0x2c .\CortexM0\ARM_GCC_541\Debug\BLDC Motor.a(PWM_B.o)
 .text.PWM_B_SetPWMInvert
                0x00000000       0x28 .\CortexM0\ARM_GCC_541\Debug\BLDC Motor.a(PWM_B.o)
 .text.PWM_B_ReadCounter
                0x00000000       0x10 .\CortexM0\ARM_GCC_541\Debug\BLDC Motor.a(PWM_B.o)
 .text.PWM_B_SetCounterMode
                0x00000000       0x28 .\CortexM0\ARM_GCC_541\Debug\BLDC Motor.a(PWM_B.o)
 .text.PWM_B_SetCompareSwap
                0x00000000       0x24 .\CortexM0\ARM_GCC_541\Debug\BLDC Motor.a(PWM_B.o)
 .text.PWM_B_WritePeriodBuf
                0x00000000       0x10 .\CortexM0\ARM_GCC_541\Debug\BLDC Motor.a(PWM_B.o)
 .text.PWM_B_ReadPeriodBuf
                0x00000000       0x10 .\CortexM0\ARM_GCC_541\Debug\BLDC Motor.a(PWM_B.o)
 .text.PWM_B_SetPeriodSwap
                0x00000000       0x28 .\CortexM0\ARM_GCC_541\Debug\BLDC Motor.a(PWM_B.o)
 .text.PWM_B_ReadCompare
                0x00000000       0x10 .\CortexM0\ARM_GCC_541\Debug\BLDC Motor.a(PWM_B.o)
 .text.PWM_B_WriteCompareBuf
                0x00000000       0x10 .\CortexM0\ARM_GCC_541\Debug\BLDC Motor.a(PWM_B.o)
 .text.PWM_B_ReadCompareBuf
                0x00000000       0x10 .\CortexM0\ARM_GCC_541\Debug\BLDC Motor.a(PWM_B.o)
 .text.PWM_B_ReadCapture
                0x00000000       0x10 .\CortexM0\ARM_GCC_541\Debug\BLDC Motor.a(PWM_B.o)
 .text.PWM_B_ReadCaptureBuf
                0x00000000       0x10 .\CortexM0\ARM_GCC_541\Debug\BLDC Motor.a(PWM_B.o)
 .text.PWM_B_SetCaptureMode
                0x00000000       0x24 .\CortexM0\ARM_GCC_541\Debug\BLDC Motor.a(PWM_B.o)
 .text.PWM_B_SetReloadMode
                0x00000000       0x24 .\CortexM0\ARM_GCC_541\Debug\BLDC Motor.a(PWM_B.o)
 .text.PWM_B_SetStartMode
                0x00000000       0x28 .\CortexM0\ARM_GCC_541\Debug\BLDC Motor.a(PWM_B.o)
 .text.PWM_B_SetStopMode
                0x00000000       0x24 .\CortexM0\ARM_GCC_541\Debug\BLDC Motor.a(PWM_B.o)
 .text.PWM_B_SetCountMode
                0x00000000       0x24 .\CortexM0\ARM_GCC_541\Debug\BLDC Motor.a(PWM_B.o)
 .text.PWM_B_ReadStatus
                0x00000000       0x14 .\CortexM0\ARM_GCC_541\Debug\BLDC Motor.a(PWM_B.o)
 .text.PWM_B_GetInterruptSourceMasked
                0x00000000        0xc .\CortexM0\ARM_GCC_541\Debug\BLDC Motor.a(PWM_B.o)
 .text.PWM_B_GetInterruptSource
                0x00000000        0xc .\CortexM0\ARM_GCC_541\Debug\BLDC Motor.a(PWM_B.o)
 .text.PWM_B_ClearInterrupt
                0x00000000        0xc .\CortexM0\ARM_GCC_541\Debug\BLDC Motor.a(PWM_B.o)
 .text.PWM_B_SetInterrupt
                0x00000000        0xc .\CortexM0\ARM_GCC_541\Debug\BLDC Motor.a(PWM_B.o)
 .text          0x00000000        0x0 .\CortexM0\ARM_GCC_541\Debug\BLDC Motor.a(PWM_C.o)
 .data          0x00000000        0x0 .\CortexM0\ARM_GCC_541\Debug\BLDC Motor.a(PWM_C.o)
 .text.PWM_C_Stop
                0x00000000       0x1c .\CortexM0\ARM_GCC_541\Debug\BLDC Motor.a(PWM_C.o)
 .text.PWM_C_SetMode
                0x00000000       0x28 .\CortexM0\ARM_GCC_541\Debug\BLDC Motor.a(PWM_C.o)
 .text.PWM_C_SetQDMode
                0x00000000       0x28 .\CortexM0\ARM_GCC_541\Debug\BLDC Motor.a(PWM_C.o)
 .text.PWM_C_SetPrescaler
                0x00000000       0x28 .\CortexM0\ARM_GCC_541\Debug\BLDC Motor.a(PWM_C.o)
 .text.PWM_C_SetOneShot
                0x00000000       0x30 .\CortexM0\ARM_GCC_541\Debug\BLDC Motor.a(PWM_C.o)
 .text.PWM_C_SetPWMMode
                0x00000000       0x10 .\CortexM0\ARM_GCC_541\Debug\BLDC Motor.a(PWM_C.o)
 .text.PWM_C_SetPWMSyncKill
                0x00000000       0x28 .\CortexM0\ARM_GCC_541\Debug\BLDC Motor.a(PWM_C.o)
 .text.PWM_C_SetPWMStopOnKill
                0x00000000       0x28 .\CortexM0\ARM_GCC_541\Debug\BLDC Motor.a(PWM_C.o)
 .text.PWM_C_SetPWMDeadTime
                0x00000000       0x2c .\CortexM0\ARM_GCC_541\Debug\BLDC Motor.a(PWM_C.o)
 .text.PWM_C_SetPWMInvert
                0x00000000       0x28 .\CortexM0\ARM_GCC_541\Debug\BLDC Motor.a(PWM_C.o)
 .text.PWM_C_ReadCounter
                0x00000000       0x10 .\CortexM0\ARM_GCC_541\Debug\BLDC Motor.a(PWM_C.o)
 .text.PWM_C_SetCounterMode
                0x00000000       0x28 .\CortexM0\ARM_GCC_541\Debug\BLDC Motor.a(PWM_C.o)
 .text.PWM_C_SetCompareSwap
                0x00000000       0x24 .\CortexM0\ARM_GCC_541\Debug\BLDC Motor.a(PWM_C.o)
 .text.PWM_C_WritePeriodBuf
                0x00000000       0x10 .\CortexM0\ARM_GCC_541\Debug\BLDC Motor.a(PWM_C.o)
 .text.PWM_C_ReadPeriodBuf
                0x00000000       0x10 .\CortexM0\ARM_GCC_541\Debug\BLDC Motor.a(PWM_C.o)
 .text.PWM_C_SetPeriodSwap
                0x00000000       0x28 .\CortexM0\ARM_GCC_541\Debug\BLDC Motor.a(PWM_C.o)
 .text.PWM_C_ReadCompare
                0x00000000       0x10 .\CortexM0\ARM_GCC_541\Debug\BLDC Motor.a(PWM_C.o)
 .text.PWM_C_WriteCompareBuf
                0x00000000       0x10 .\CortexM0\ARM_GCC_541\Debug\BLDC Motor.a(PWM_C.o)
 .text.PWM_C_ReadCompareBuf
                0x00000000       0x10 .\CortexM0\ARM_GCC_541\Debug\BLDC Motor.a(PWM_C.o)
 .text.PWM_C_ReadCapture
                0x00000000       0x10 .\CortexM0\ARM_GCC_541\Debug\BLDC Motor.a(PWM_C.o)
 .text.PWM_C_ReadCaptureBuf
                0x00000000       0x10 .\CortexM0\ARM_GCC_541\Debug\BLDC Motor.a(PWM_C.o)
 .text.PWM_C_SetCaptureMode
                0x00000000       0x24 .\CortexM0\ARM_GCC_541\Debug\BLDC Motor.a(PWM_C.o)
 .text.PWM_C_SetReloadMode
                0x00000000       0x24 .\CortexM0\ARM_GCC_541\Debug\BLDC Motor.a(PWM_C.o)
 .text.PWM_C_SetStartMode
                0x00000000       0x28 .\CortexM0\ARM_GCC_541\Debug\BLDC Motor.a(PWM_C.o)
 .text.PWM_C_SetStopMode
                0x00000000       0x24 .\CortexM0\ARM_GCC_541\Debug\BLDC Motor.a(PWM_C.o)
 .text.PWM_C_SetCountMode
                0x00000000       0x24 .\CortexM0\ARM_GCC_541\Debug\BLDC Motor.a(PWM_C.o)
 .text.PWM_C_ReadStatus
                0x00000000       0x14 .\CortexM0\ARM_GCC_541\Debug\BLDC Motor.a(PWM_C.o)
 .text.PWM_C_GetInterruptSourceMasked
                0x00000000        0xc .\CortexM0\ARM_GCC_541\Debug\BLDC Motor.a(PWM_C.o)
 .text.PWM_C_GetInterruptSource
                0x00000000        0xc .\CortexM0\ARM_GCC_541\Debug\BLDC Motor.a(PWM_C.o)
 .text.PWM_C_ClearInterrupt
                0x00000000        0xc .\CortexM0\ARM_GCC_541\Debug\BLDC Motor.a(PWM_C.o)
 .text.PWM_C_SetInterrupt
                0x00000000        0xc .\CortexM0\ARM_GCC_541\Debug\BLDC Motor.a(PWM_C.o)
 .text          0x00000000        0x0 .\CortexM0\ARM_GCC_541\Debug\BLDC Motor.a(u.o)
 .data          0x00000000        0x0 .\CortexM0\ARM_GCC_541\Debug\BLDC Motor.a(u.o)
 .bss           0x00000000        0x0 .\CortexM0\ARM_GCC_541\Debug\BLDC Motor.a(u.o)
 .text.u_SetDriveMode
                0x00000000       0x18 .\CortexM0\ARM_GCC_541\Debug\BLDC Motor.a(u.o)
 .text.u_Write  0x00000000       0x18 .\CortexM0\ARM_GCC_541\Debug\BLDC Motor.a(u.o)
 .text.u_ReadDataReg
                0x00000000       0x10 .\CortexM0\ARM_GCC_541\Debug\BLDC Motor.a(u.o)
 .text.u_SetInterruptMode
                0x00000000       0x14 .\CortexM0\ARM_GCC_541\Debug\BLDC Motor.a(u.o)
 .text          0x00000000        0x0 .\CortexM0\ARM_GCC_541\Debug\BLDC Motor.a(v.o)
 .data          0x00000000        0x0 .\CortexM0\ARM_GCC_541\Debug\BLDC Motor.a(v.o)
 .bss           0x00000000        0x0 .\CortexM0\ARM_GCC_541\Debug\BLDC Motor.a(v.o)
 .text.v_SetDriveMode
                0x00000000       0x18 .\CortexM0\ARM_GCC_541\Debug\BLDC Motor.a(v.o)
 .text.v_Write  0x00000000       0x18 .\CortexM0\ARM_GCC_541\Debug\BLDC Motor.a(v.o)
 .text.v_ReadDataReg
                0x00000000       0x10 .\CortexM0\ARM_GCC_541\Debug\BLDC Motor.a(v.o)
 .text.v_SetInterruptMode
                0x00000000       0x14 .\CortexM0\ARM_GCC_541\Debug\BLDC Motor.a(v.o)
 .text          0x00000000        0x0 .\CortexM0\ARM_GCC_541\Debug\BLDC Motor.a(w.o)
 .data          0x00000000        0x0 .\CortexM0\ARM_GCC_541\Debug\BLDC Motor.a(w.o)
 .bss           0x00000000        0x0 .\CortexM0\ARM_GCC_541\Debug\BLDC Motor.a(w.o)
 .text.w_SetDriveMode
                0x00000000       0x14 .\CortexM0\ARM_GCC_541\Debug\BLDC Motor.a(w.o)
 .text.w_Write  0x00000000       0x18 .\CortexM0\ARM_GCC_541\Debug\BLDC Motor.a(w.o)
 .text.w_ReadDataReg
                0x00000000       0x10 .\CortexM0\ARM_GCC_541\Debug\BLDC Motor.a(w.o)
 .text.w_SetInterruptMode
                0x00000000       0x14 .\CortexM0\ARM_GCC_541\Debug\BLDC Motor.a(w.o)
 .text          0x00000000        0x0 .\CortexM0\ARM_GCC_541\Debug\BLDC Motor.a(UART.o)
 .data          0x00000000        0x0 .\CortexM0\ARM_GCC_541\Debug\BLDC Motor.a(UART.o)
 .text.UART_ScbModeStop
                0x00000000        0x8 .\CortexM0\ARM_GCC_541\Debug\BLDC Motor.a(UART.o)
 .text.UART_Stop
                0x00000000       0x20 .\CortexM0\ARM_GCC_541\Debug\BLDC Motor.a(UART.o)
 .text.UART_SetRxFifoLevel
                0x00000000       0x14 .\CortexM0\ARM_GCC_541\Debug\BLDC Motor.a(UART.o)
 .text.UART_SetTxFifoLevel
                0x00000000       0x14 .\CortexM0\ARM_GCC_541\Debug\BLDC Motor.a(UART.o)
 .text          0x00000000        0x0 .\CortexM0\ARM_GCC_541\Debug\BLDC Motor.a(UART_SPI_UART.o)
 .data          0x00000000        0x0 .\CortexM0\ARM_GCC_541\Debug\BLDC Motor.a(UART_SPI_UART.o)
 .bss           0x00000000        0x0 .\CortexM0\ARM_GCC_541\Debug\BLDC Motor.a(UART_SPI_UART.o)
 .text.UART_SpiUartClearRxBuffer
                0x00000000       0x20 .\CortexM0\ARM_GCC_541\Debug\BLDC Motor.a(UART_SPI_UART.o)
 .text.UART_SpiUartPutArray
                0x00000000       0x18 .\CortexM0\ARM_GCC_541\Debug\BLDC Motor.a(UART_SPI_UART.o)
 .text.UART_SpiUartGetTxBufferSize
                0x00000000       0x10 .\CortexM0\ARM_GCC_541\Debug\BLDC Motor.a(UART_SPI_UART.o)
 .text.UART_SpiUartClearTxBuffer
                0x00000000       0x20 .\CortexM0\ARM_GCC_541\Debug\BLDC Motor.a(UART_SPI_UART.o)
 .text.UART_SpiUartDisableIntRx
                0x00000000       0x10 .\CortexM0\ARM_GCC_541\Debug\BLDC Motor.a(UART_SPI_UART.o)
 .text.UART_SpiUartDisableIntTx
                0x00000000       0x10 .\CortexM0\ARM_GCC_541\Debug\BLDC Motor.a(UART_SPI_UART.o)
 .text          0x00000000        0x0 .\CortexM0\ARM_GCC_541\Debug\BLDC Motor.a(UART_UART.o)
 .data          0x00000000        0x0 .\CortexM0\ARM_GCC_541\Debug\BLDC Motor.a(UART_UART.o)
 .bss           0x00000000        0x0 .\CortexM0\ARM_GCC_541\Debug\BLDC Motor.a(UART_UART.o)
 .text.UART_UartStop
                0x00000000       0x28 .\CortexM0\ARM_GCC_541\Debug\BLDC Motor.a(UART_UART.o)
 .text.UART_UartSetRxAddress
                0x00000000       0x14 .\CortexM0\ARM_GCC_541\Debug\BLDC Motor.a(UART_UART.o)
 .text.UART_UartSetRxAddressMask
                0x00000000       0x18 .\CortexM0\ARM_GCC_541\Debug\BLDC Motor.a(UART_UART.o)
 .text.UART_UartGetByte
                0x00000000       0x34 .\CortexM0\ARM_GCC_541\Debug\BLDC Motor.a(UART_UART.o)
 .text.UART_UartSetRtsPolarity
                0x00000000       0x28 .\CortexM0\ARM_GCC_541\Debug\BLDC Motor.a(UART_UART.o)
 .text.UART_UartSetRtsFifoLevel
                0x00000000       0x14 .\CortexM0\ARM_GCC_541\Debug\BLDC Motor.a(UART_UART.o)
 .text.UART_UartPutString
                0x00000000       0x18 .\CortexM0\ARM_GCC_541\Debug\BLDC Motor.a(UART_UART.o)
 .text.UART_UartPutCRLF
                0x00000000       0x14 .\CortexM0\ARM_GCC_541\Debug\BLDC Motor.a(UART_UART.o)
 .text.UART_UartEnableCts
                0x00000000       0x14 .\CortexM0\ARM_GCC_541\Debug\BLDC Motor.a(UART_UART.o)
 .text.UART_UartDisableCts
                0x00000000       0x14 .\CortexM0\ARM_GCC_541\Debug\BLDC Motor.a(UART_UART.o)
 .text.UART_UartSetCtsPolarity
                0x00000000       0x28 .\CortexM0\ARM_GCC_541\Debug\BLDC Motor.a(UART_UART.o)
 .text.UART_UartSendBreakBlocking
                0x00000000       0x58 .\CortexM0\ARM_GCC_541\Debug\BLDC Motor.a(UART_UART.o)
 .text          0x00000000        0x0 .\CortexM0\ARM_GCC_541\Debug\BLDC Motor.a(CTRL.o)
 .data          0x00000000        0x0 .\CortexM0\ARM_GCC_541\Debug\BLDC Motor.a(CTRL.o)
 .bss           0x00000000        0x0 .\CortexM0\ARM_GCC_541\Debug\BLDC Motor.a(CTRL.o)
 .text.CTRL_SetDriveMode
                0x00000000       0x18 .\CortexM0\ARM_GCC_541\Debug\BLDC Motor.a(CTRL.o)
 .text.CTRL_Read
                0x00000000       0x10 .\CortexM0\ARM_GCC_541\Debug\BLDC Motor.a(CTRL.o)
 .text.CTRL_ReadDataReg
                0x00000000       0x10 .\CortexM0\ARM_GCC_541\Debug\BLDC Motor.a(CTRL.o)
 .text.CTRL_SetInterruptMode
                0x00000000       0x14 .\CortexM0\ARM_GCC_541\Debug\BLDC Motor.a(CTRL.o)
 .text.CTRL_ClearInterrupt
                0x00000000       0x14 .\CortexM0\ARM_GCC_541\Debug\BLDC Motor.a(CTRL.o)
 .text          0x00000000        0x0 .\CortexM0\ARM_GCC_541\Debug\BLDC Motor.a(Counter_micros.o)
 .data          0x00000000        0x0 .\CortexM0\ARM_GCC_541\Debug\BLDC Motor.a(Counter_micros.o)
 .text.Counter_micros_Stop
                0x00000000       0x10 .\CortexM0\ARM_GCC_541\Debug\BLDC Motor.a(Counter_micros.o)
 .text.Counter_micros_ReadControlRegister
                0x00000000        0xc .\CortexM0\ARM_GCC_541\Debug\BLDC Motor.a(Counter_micros.o)
 .text.Counter_micros_WriteControlRegister
                0x00000000        0xc .\CortexM0\ARM_GCC_541\Debug\BLDC Motor.a(Counter_micros.o)
 .text.Counter_micros_ReadPeriod
                0x00000000        0xc .\CortexM0\ARM_GCC_541\Debug\BLDC Motor.a(Counter_micros.o)
 .text          0x00000000        0x0 .\CortexM0\ARM_GCC_541\Debug\BLDC Motor.a(isr_millis.o)
 .data          0x00000000        0x0 .\CortexM0\ARM_GCC_541\Debug\BLDC Motor.a(isr_millis.o)
 .bss           0x00000000        0x0 .\CortexM0\ARM_GCC_541\Debug\BLDC Motor.a(isr_millis.o)
 .text.isr_millis_Interrupt
                0x00000000        0x4 .\CortexM0\ARM_GCC_541\Debug\BLDC Motor.a(isr_millis.o)
 .text.isr_millis_GetVector
                0x00000000        0xc .\CortexM0\ARM_GCC_541\Debug\BLDC Motor.a(isr_millis.o)
 .text.isr_millis_GetPriority
                0x00000000       0x10 .\CortexM0\ARM_GCC_541\Debug\BLDC Motor.a(isr_millis.o)
 .text.isr_millis_GetState
                0x00000000       0x10 .\CortexM0\ARM_GCC_541\Debug\BLDC Motor.a(isr_millis.o)
 .text.isr_millis_Start
                0x00000000       0x1c .\CortexM0\ARM_GCC_541\Debug\BLDC Motor.a(isr_millis.o)
 .text.isr_millis_Stop
                0x00000000       0x14 .\CortexM0\ARM_GCC_541\Debug\BLDC Motor.a(isr_millis.o)
 .text.isr_millis_SetPending
                0x00000000        0xc .\CortexM0\ARM_GCC_541\Debug\BLDC Motor.a(isr_millis.o)
 .text.isr_millis_ClearPending
                0x00000000        0xc .\CortexM0\ARM_GCC_541\Debug\BLDC Motor.a(isr_millis.o)
 .text          0x00000000        0x0 .\CortexM0\ARM_GCC_541\Debug\BLDC Motor.a(isr_uf.o)
 .data          0x00000000        0x0 .\CortexM0\ARM_GCC_541\Debug\BLDC Motor.a(isr_uf.o)
 .bss           0x00000000        0x0 .\CortexM0\ARM_GCC_541\Debug\BLDC Motor.a(isr_uf.o)
 .text.isr_uf_Interrupt
                0x00000000        0x4 .\CortexM0\ARM_GCC_541\Debug\BLDC Motor.a(isr_uf.o)
 .text.isr_uf_GetVector
                0x00000000        0xc .\CortexM0\ARM_GCC_541\Debug\BLDC Motor.a(isr_uf.o)
 .text.isr_uf_GetPriority
                0x00000000       0x10 .\CortexM0\ARM_GCC_541\Debug\BLDC Motor.a(isr_uf.o)
 .text.isr_uf_GetState
                0x00000000       0x14 .\CortexM0\ARM_GCC_541\Debug\BLDC Motor.a(isr_uf.o)
 .text.isr_uf_Start
                0x00000000       0x1c .\CortexM0\ARM_GCC_541\Debug\BLDC Motor.a(isr_uf.o)
 .text.isr_uf_Stop
                0x00000000       0x14 .\CortexM0\ARM_GCC_541\Debug\BLDC Motor.a(isr_uf.o)
 .text.isr_uf_SetPending
                0x00000000        0xc .\CortexM0\ARM_GCC_541\Debug\BLDC Motor.a(isr_uf.o)
 .text.isr_uf_ClearPending
                0x00000000        0xc .\CortexM0\ARM_GCC_541\Debug\BLDC Motor.a(isr_uf.o)
 .text          0x00000000        0x0 .\CortexM0\ARM_GCC_541\Debug\BLDC Motor.a(isr_vf.o)
 .data          0x00000000        0x0 .\CortexM0\ARM_GCC_541\Debug\BLDC Motor.a(isr_vf.o)
 .bss           0x00000000        0x0 .\CortexM0\ARM_GCC_541\Debug\BLDC Motor.a(isr_vf.o)
 .text.isr_vf_Interrupt
                0x00000000        0x4 .\CortexM0\ARM_GCC_541\Debug\BLDC Motor.a(isr_vf.o)
 .text.isr_vf_GetVector
                0x00000000        0xc .\CortexM0\ARM_GCC_541\Debug\BLDC Motor.a(isr_vf.o)
 .text.isr_vf_GetPriority
                0x00000000        0xc .\CortexM0\ARM_GCC_541\Debug\BLDC Motor.a(isr_vf.o)
 .text.isr_vf_GetState
                0x00000000       0x14 .\CortexM0\ARM_GCC_541\Debug\BLDC Motor.a(isr_vf.o)
 .text.isr_vf_Start
                0x00000000       0x1c .\CortexM0\ARM_GCC_541\Debug\BLDC Motor.a(isr_vf.o)
 .text.isr_vf_Stop
                0x00000000       0x14 .\CortexM0\ARM_GCC_541\Debug\BLDC Motor.a(isr_vf.o)
 .text.isr_vf_SetPending
                0x00000000        0xc .\CortexM0\ARM_GCC_541\Debug\BLDC Motor.a(isr_vf.o)
 .text.isr_vf_ClearPending
                0x00000000        0xc .\CortexM0\ARM_GCC_541\Debug\BLDC Motor.a(isr_vf.o)
 .text          0x00000000        0x0 .\CortexM0\ARM_GCC_541\Debug\BLDC Motor.a(isr_wf.o)
 .data          0x00000000        0x0 .\CortexM0\ARM_GCC_541\Debug\BLDC Motor.a(isr_wf.o)
 .bss           0x00000000        0x0 .\CortexM0\ARM_GCC_541\Debug\BLDC Motor.a(isr_wf.o)
 .text.isr_wf_Interrupt
                0x00000000        0x4 .\CortexM0\ARM_GCC_541\Debug\BLDC Motor.a(isr_wf.o)
 .text.isr_wf_GetVector
                0x00000000        0xc .\CortexM0\ARM_GCC_541\Debug\BLDC Motor.a(isr_wf.o)
 .text.isr_wf_GetPriority
                0x00000000       0x10 .\CortexM0\ARM_GCC_541\Debug\BLDC Motor.a(isr_wf.o)
 .text.isr_wf_GetState
                0x00000000       0x14 .\CortexM0\ARM_GCC_541\Debug\BLDC Motor.a(isr_wf.o)
 .text.isr_wf_Start
                0x00000000       0x1c .\CortexM0\ARM_GCC_541\Debug\BLDC Motor.a(isr_wf.o)
 .text.isr_wf_Stop
                0x00000000       0x14 .\CortexM0\ARM_GCC_541\Debug\BLDC Motor.a(isr_wf.o)
 .text.isr_wf_SetPending
                0x00000000        0xc .\CortexM0\ARM_GCC_541\Debug\BLDC Motor.a(isr_wf.o)
 .text.isr_wf_ClearPending
                0x00000000        0xc .\CortexM0\ARM_GCC_541\Debug\BLDC Motor.a(isr_wf.o)
 .text          0x00000000        0x0 .\CortexM0\ARM_GCC_541\Debug\BLDC Motor.a(isr_wr.o)
 .data          0x00000000        0x0 .\CortexM0\ARM_GCC_541\Debug\BLDC Motor.a(isr_wr.o)
 .bss           0x00000000        0x0 .\CortexM0\ARM_GCC_541\Debug\BLDC Motor.a(isr_wr.o)
 .text.isr_wr_Interrupt
                0x00000000        0x4 .\CortexM0\ARM_GCC_541\Debug\BLDC Motor.a(isr_wr.o)
 .text.isr_wr_GetVector
                0x00000000        0xc .\CortexM0\ARM_GCC_541\Debug\BLDC Motor.a(isr_wr.o)
 .text.isr_wr_GetPriority
                0x00000000       0x10 .\CortexM0\ARM_GCC_541\Debug\BLDC Motor.a(isr_wr.o)
 .text.isr_wr_GetState
                0x00000000       0x14 .\CortexM0\ARM_GCC_541\Debug\BLDC Motor.a(isr_wr.o)
 .text.isr_wr_Start
                0x00000000       0x1c .\CortexM0\ARM_GCC_541\Debug\BLDC Motor.a(isr_wr.o)
 .text.isr_wr_Stop
                0x00000000       0x14 .\CortexM0\ARM_GCC_541\Debug\BLDC Motor.a(isr_wr.o)
 .text.isr_wr_SetPending
                0x00000000        0xc .\CortexM0\ARM_GCC_541\Debug\BLDC Motor.a(isr_wr.o)
 .text.isr_wr_ClearPending
                0x00000000        0xc .\CortexM0\ARM_GCC_541\Debug\BLDC Motor.a(isr_wr.o)
 .text          0x00000000        0x0 .\CortexM0\ARM_GCC_541\Debug\BLDC Motor.a(isr_vr.o)
 .data          0x00000000        0x0 .\CortexM0\ARM_GCC_541\Debug\BLDC Motor.a(isr_vr.o)
 .bss           0x00000000        0x0 .\CortexM0\ARM_GCC_541\Debug\BLDC Motor.a(isr_vr.o)
 .text.isr_vr_Interrupt
                0x00000000        0x4 .\CortexM0\ARM_GCC_541\Debug\BLDC Motor.a(isr_vr.o)
 .text.isr_vr_GetVector
                0x00000000        0xc .\CortexM0\ARM_GCC_541\Debug\BLDC Motor.a(isr_vr.o)
 .text.isr_vr_GetPriority
                0x00000000       0x10 .\CortexM0\ARM_GCC_541\Debug\BLDC Motor.a(isr_vr.o)
 .text.isr_vr_GetState
                0x00000000       0x14 .\CortexM0\ARM_GCC_541\Debug\BLDC Motor.a(isr_vr.o)
 .text.isr_vr_Start
                0x00000000       0x1c .\CortexM0\ARM_GCC_541\Debug\BLDC Motor.a(isr_vr.o)
 .text.isr_vr_Stop
                0x00000000       0x14 .\CortexM0\ARM_GCC_541\Debug\BLDC Motor.a(isr_vr.o)
 .text.isr_vr_SetPending
                0x00000000        0xc .\CortexM0\ARM_GCC_541\Debug\BLDC Motor.a(isr_vr.o)
 .text.isr_vr_ClearPending
                0x00000000        0xc .\CortexM0\ARM_GCC_541\Debug\BLDC Motor.a(isr_vr.o)
 .text          0x00000000        0x0 .\CortexM0\ARM_GCC_541\Debug\BLDC Motor.a(isr_ur.o)
 .data          0x00000000        0x0 .\CortexM0\ARM_GCC_541\Debug\BLDC Motor.a(isr_ur.o)
 .bss           0x00000000        0x0 .\CortexM0\ARM_GCC_541\Debug\BLDC Motor.a(isr_ur.o)
 .text.isr_ur_Interrupt
                0x00000000        0x4 .\CortexM0\ARM_GCC_541\Debug\BLDC Motor.a(isr_ur.o)
 .text.isr_ur_GetVector
                0x00000000        0xc .\CortexM0\ARM_GCC_541\Debug\BLDC Motor.a(isr_ur.o)
 .text.isr_ur_GetPriority
                0x00000000       0x10 .\CortexM0\ARM_GCC_541\Debug\BLDC Motor.a(isr_ur.o)
 .text.isr_ur_GetState
                0x00000000       0x14 .\CortexM0\ARM_GCC_541\Debug\BLDC Motor.a(isr_ur.o)
 .text.isr_ur_Start
                0x00000000       0x1c .\CortexM0\ARM_GCC_541\Debug\BLDC Motor.a(isr_ur.o)
 .text.isr_ur_Stop
                0x00000000       0x14 .\CortexM0\ARM_GCC_541\Debug\BLDC Motor.a(isr_ur.o)
 .text.isr_ur_SetPending
                0x00000000        0xc .\CortexM0\ARM_GCC_541\Debug\BLDC Motor.a(isr_ur.o)
 .text.isr_ur_ClearPending
                0x00000000        0xc .\CortexM0\ARM_GCC_541\Debug\BLDC Motor.a(isr_ur.o)
 .data          0x00000000        0x0 .\CortexM0\ARM_GCC_541\Debug\BLDC Motor.a(CyBootAsmGnu.o)
 .bss           0x00000000        0x0 .\CortexM0\ARM_GCC_541\Debug\BLDC Motor.a(CyBootAsmGnu.o)
 .text          0x00000000        0x0 .\CortexM0\ARM_GCC_541\Debug\BLDC Motor.a(CyFlash.o)
 .data          0x00000000        0x0 .\CortexM0\ARM_GCC_541\Debug\BLDC Motor.a(CyFlash.o)
 .bss           0x00000000        0x0 .\CortexM0\ARM_GCC_541\Debug\BLDC Motor.a(CyFlash.o)
 .text.CySysFlashClockBackup
                0x00000000        0x4 .\CortexM0\ARM_GCC_541\Debug\BLDC Motor.a(CyFlash.o)
 .text.CySysFlashClockRestore
                0x00000000        0x4 .\CortexM0\ARM_GCC_541\Debug\BLDC Motor.a(CyFlash.o)
 .text.CySysFlashWriteRow
                0x00000000      0x124 .\CortexM0\ARM_GCC_541\Debug\BLDC Motor.a(CyFlash.o)
 .text.CySysSFlashWriteUserRow
                0x00000000      0x110 .\CortexM0\ARM_GCC_541\Debug\BLDC Motor.a(CyFlash.o)
 .data          0x00000000        0x0 c:/program files (x86)/cypress/psoc creator/4.4/psoc creator/import/gnu/arm/5.4.1/bin/../lib/gcc/arm-none-eabi/5.4.1/armv6-m\libgcc.a(_udivsi3.o)
 .bss           0x00000000        0x0 c:/program files (x86)/cypress/psoc creator/4.4/psoc creator/import/gnu/arm/5.4.1/bin/../lib/gcc/arm-none-eabi/5.4.1/armv6-m\libgcc.a(_udivsi3.o)
 .data          0x00000000        0x0 c:/program files (x86)/cypress/psoc creator/4.4/psoc creator/import/gnu/arm/5.4.1/bin/../lib/gcc/arm-none-eabi/5.4.1/armv6-m\libgcc.a(_divsi3.o)
 .bss           0x00000000        0x0 c:/program files (x86)/cypress/psoc creator/4.4/psoc creator/import/gnu/arm/5.4.1/bin/../lib/gcc/arm-none-eabi/5.4.1/armv6-m\libgcc.a(_divsi3.o)
 .data          0x00000000        0x0 c:/program files (x86)/cypress/psoc creator/4.4/psoc creator/import/gnu/arm/5.4.1/bin/../lib/gcc/arm-none-eabi/5.4.1/armv6-m\libgcc.a(_dvmd_tls.o)
 .bss           0x00000000        0x0 c:/program files (x86)/cypress/psoc creator/4.4/psoc creator/import/gnu/arm/5.4.1/bin/../lib/gcc/arm-none-eabi/5.4.1/armv6-m\libgcc.a(_dvmd_tls.o)
 .data          0x00000000        0x0 c:/program files (x86)/cypress/psoc creator/4.4/psoc creator/import/gnu/arm/5.4.1/bin/../lib/gcc/arm-none-eabi/5.4.1/armv6-m\libgcc.a(_arm_cmpdf2.o)
 .bss           0x00000000        0x0 c:/program files (x86)/cypress/psoc creator/4.4/psoc creator/import/gnu/arm/5.4.1/bin/../lib/gcc/arm-none-eabi/5.4.1/armv6-m\libgcc.a(_arm_cmpdf2.o)
 .data          0x00000000        0x0 c:/program files (x86)/cypress/psoc creator/4.4/psoc creator/import/gnu/arm/5.4.1/bin/../lib/gcc/arm-none-eabi/5.4.1/armv6-m\libgcc.a(_arm_cmpsf2.o)
 .bss           0x00000000        0x0 c:/program files (x86)/cypress/psoc creator/4.4/psoc creator/import/gnu/arm/5.4.1/bin/../lib/gcc/arm-none-eabi/5.4.1/armv6-m\libgcc.a(_arm_cmpsf2.o)
 .data          0x00000000        0x0 c:/program files (x86)/cypress/psoc creator/4.4/psoc creator/import/gnu/arm/5.4.1/bin/../lib/gcc/arm-none-eabi/5.4.1/armv6-m\libgcc.a(_fixunssfsi.o)
 .bss           0x00000000        0x0 c:/program files (x86)/cypress/psoc creator/4.4/psoc creator/import/gnu/arm/5.4.1/bin/../lib/gcc/arm-none-eabi/5.4.1/armv6-m\libgcc.a(_fixunssfsi.o)
 .data          0x00000000        0x0 c:/program files (x86)/cypress/psoc creator/4.4/psoc creator/import/gnu/arm/5.4.1/bin/../lib/gcc/arm-none-eabi/5.4.1/armv6-m\libgcc.a(_fixunsdfsi.o)
 .bss           0x00000000        0x0 c:/program files (x86)/cypress/psoc creator/4.4/psoc creator/import/gnu/arm/5.4.1/bin/../lib/gcc/arm-none-eabi/5.4.1/armv6-m\libgcc.a(_fixunsdfsi.o)
 .data          0x00000000        0x0 c:/program files (x86)/cypress/psoc creator/4.4/psoc creator/import/gnu/arm/5.4.1/bin/../lib/gcc/arm-none-eabi/5.4.1/armv6-m\libgcc.a(addsf3.o)
 .bss           0x00000000        0x0 c:/program files (x86)/cypress/psoc creator/4.4/psoc creator/import/gnu/arm/5.4.1/bin/../lib/gcc/arm-none-eabi/5.4.1/armv6-m\libgcc.a(addsf3.o)
 .data          0x00000000        0x0 c:/program files (x86)/cypress/psoc creator/4.4/psoc creator/import/gnu/arm/5.4.1/bin/../lib/gcc/arm-none-eabi/5.4.1/armv6-m\libgcc.a(divsf3.o)
 .bss           0x00000000        0x0 c:/program files (x86)/cypress/psoc creator/4.4/psoc creator/import/gnu/arm/5.4.1/bin/../lib/gcc/arm-none-eabi/5.4.1/armv6-m\libgcc.a(divsf3.o)
 .data          0x00000000        0x0 c:/program files (x86)/cypress/psoc creator/4.4/psoc creator/import/gnu/arm/5.4.1/bin/../lib/gcc/arm-none-eabi/5.4.1/armv6-m\libgcc.a(eqsf2.o)
 .bss           0x00000000        0x0 c:/program files (x86)/cypress/psoc creator/4.4/psoc creator/import/gnu/arm/5.4.1/bin/../lib/gcc/arm-none-eabi/5.4.1/armv6-m\libgcc.a(eqsf2.o)
 .data          0x00000000        0x0 c:/program files (x86)/cypress/psoc creator/4.4/psoc creator/import/gnu/arm/5.4.1/bin/../lib/gcc/arm-none-eabi/5.4.1/armv6-m\libgcc.a(gesf2.o)
 .bss           0x00000000        0x0 c:/program files (x86)/cypress/psoc creator/4.4/psoc creator/import/gnu/arm/5.4.1/bin/../lib/gcc/arm-none-eabi/5.4.1/armv6-m\libgcc.a(gesf2.o)
 .data          0x00000000        0x0 c:/program files (x86)/cypress/psoc creator/4.4/psoc creator/import/gnu/arm/5.4.1/bin/../lib/gcc/arm-none-eabi/5.4.1/armv6-m\libgcc.a(lesf2.o)
 .bss           0x00000000        0x0 c:/program files (x86)/cypress/psoc creator/4.4/psoc creator/import/gnu/arm/5.4.1/bin/../lib/gcc/arm-none-eabi/5.4.1/armv6-m\libgcc.a(lesf2.o)
 .data          0x00000000        0x0 c:/program files (x86)/cypress/psoc creator/4.4/psoc creator/import/gnu/arm/5.4.1/bin/../lib/gcc/arm-none-eabi/5.4.1/armv6-m\libgcc.a(mulsf3.o)
 .bss           0x00000000        0x0 c:/program files (x86)/cypress/psoc creator/4.4/psoc creator/import/gnu/arm/5.4.1/bin/../lib/gcc/arm-none-eabi/5.4.1/armv6-m\libgcc.a(mulsf3.o)
 .data          0x00000000        0x0 c:/program files (x86)/cypress/psoc creator/4.4/psoc creator/import/gnu/arm/5.4.1/bin/../lib/gcc/arm-none-eabi/5.4.1/armv6-m\libgcc.a(subsf3.o)
 .bss           0x00000000        0x0 c:/program files (x86)/cypress/psoc creator/4.4/psoc creator/import/gnu/arm/5.4.1/bin/../lib/gcc/arm-none-eabi/5.4.1/armv6-m\libgcc.a(subsf3.o)
 .data          0x00000000        0x0 c:/program files (x86)/cypress/psoc creator/4.4/psoc creator/import/gnu/arm/5.4.1/bin/../lib/gcc/arm-none-eabi/5.4.1/armv6-m\libgcc.a(fixsfsi.o)
 .bss           0x00000000        0x0 c:/program files (x86)/cypress/psoc creator/4.4/psoc creator/import/gnu/arm/5.4.1/bin/../lib/gcc/arm-none-eabi/5.4.1/armv6-m\libgcc.a(fixsfsi.o)
 .data          0x00000000        0x0 c:/program files (x86)/cypress/psoc creator/4.4/psoc creator/import/gnu/arm/5.4.1/bin/../lib/gcc/arm-none-eabi/5.4.1/armv6-m\libgcc.a(floatsisf.o)
 .bss           0x00000000        0x0 c:/program files (x86)/cypress/psoc creator/4.4/psoc creator/import/gnu/arm/5.4.1/bin/../lib/gcc/arm-none-eabi/5.4.1/armv6-m\libgcc.a(floatsisf.o)
 .data          0x00000000        0x0 c:/program files (x86)/cypress/psoc creator/4.4/psoc creator/import/gnu/arm/5.4.1/bin/../lib/gcc/arm-none-eabi/5.4.1/armv6-m\libgcc.a(floatunsisf.o)
 .bss           0x00000000        0x0 c:/program files (x86)/cypress/psoc creator/4.4/psoc creator/import/gnu/arm/5.4.1/bin/../lib/gcc/arm-none-eabi/5.4.1/armv6-m\libgcc.a(floatunsisf.o)
 .data          0x00000000        0x0 c:/program files (x86)/cypress/psoc creator/4.4/psoc creator/import/gnu/arm/5.4.1/bin/../lib/gcc/arm-none-eabi/5.4.1/armv6-m\libgcc.a(divdf3.o)
 .bss           0x00000000        0x0 c:/program files (x86)/cypress/psoc creator/4.4/psoc creator/import/gnu/arm/5.4.1/bin/../lib/gcc/arm-none-eabi/5.4.1/armv6-m\libgcc.a(divdf3.o)
 .data          0x00000000        0x0 c:/program files (x86)/cypress/psoc creator/4.4/psoc creator/import/gnu/arm/5.4.1/bin/../lib/gcc/arm-none-eabi/5.4.1/armv6-m\libgcc.a(eqdf2.o)
 .bss           0x00000000        0x0 c:/program files (x86)/cypress/psoc creator/4.4/psoc creator/import/gnu/arm/5.4.1/bin/../lib/gcc/arm-none-eabi/5.4.1/armv6-m\libgcc.a(eqdf2.o)
 .data          0x00000000        0x0 c:/program files (x86)/cypress/psoc creator/4.4/psoc creator/import/gnu/arm/5.4.1/bin/../lib/gcc/arm-none-eabi/5.4.1/armv6-m\libgcc.a(gedf2.o)
 .bss           0x00000000        0x0 c:/program files (x86)/cypress/psoc creator/4.4/psoc creator/import/gnu/arm/5.4.1/bin/../lib/gcc/arm-none-eabi/5.4.1/armv6-m\libgcc.a(gedf2.o)
 .data          0x00000000        0x0 c:/program files (x86)/cypress/psoc creator/4.4/psoc creator/import/gnu/arm/5.4.1/bin/../lib/gcc/arm-none-eabi/5.4.1/armv6-m\libgcc.a(ledf2.o)
 .bss           0x00000000        0x0 c:/program files (x86)/cypress/psoc creator/4.4/psoc creator/import/gnu/arm/5.4.1/bin/../lib/gcc/arm-none-eabi/5.4.1/armv6-m\libgcc.a(ledf2.o)
 .data          0x00000000        0x0 c:/program files (x86)/cypress/psoc creator/4.4/psoc creator/import/gnu/arm/5.4.1/bin/../lib/gcc/arm-none-eabi/5.4.1/armv6-m\libgcc.a(muldf3.o)
 .bss           0x00000000        0x0 c:/program files (x86)/cypress/psoc creator/4.4/psoc creator/import/gnu/arm/5.4.1/bin/../lib/gcc/arm-none-eabi/5.4.1/armv6-m\libgcc.a(muldf3.o)
 .data          0x00000000        0x0 c:/program files (x86)/cypress/psoc creator/4.4/psoc creator/import/gnu/arm/5.4.1/bin/../lib/gcc/arm-none-eabi/5.4.1/armv6-m\libgcc.a(subdf3.o)
 .bss           0x00000000        0x0 c:/program files (x86)/cypress/psoc creator/4.4/psoc creator/import/gnu/arm/5.4.1/bin/../lib/gcc/arm-none-eabi/5.4.1/armv6-m\libgcc.a(subdf3.o)
 .data          0x00000000        0x0 c:/program files (x86)/cypress/psoc creator/4.4/psoc creator/import/gnu/arm/5.4.1/bin/../lib/gcc/arm-none-eabi/5.4.1/armv6-m\libgcc.a(fixdfsi.o)
 .bss           0x00000000        0x0 c:/program files (x86)/cypress/psoc creator/4.4/psoc creator/import/gnu/arm/5.4.1/bin/../lib/gcc/arm-none-eabi/5.4.1/armv6-m\libgcc.a(fixdfsi.o)
 .data          0x00000000        0x0 c:/program files (x86)/cypress/psoc creator/4.4/psoc creator/import/gnu/arm/5.4.1/bin/../lib/gcc/arm-none-eabi/5.4.1/armv6-m\libgcc.a(floatunsidf.o)
 .bss           0x00000000        0x0 c:/program files (x86)/cypress/psoc creator/4.4/psoc creator/import/gnu/arm/5.4.1/bin/../lib/gcc/arm-none-eabi/5.4.1/armv6-m\libgcc.a(floatunsidf.o)
 .data          0x00000000        0x0 c:/program files (x86)/cypress/psoc creator/4.4/psoc creator/import/gnu/arm/5.4.1/bin/../lib/gcc/arm-none-eabi/5.4.1/armv6-m\libgcc.a(extendsfdf2.o)
 .bss           0x00000000        0x0 c:/program files (x86)/cypress/psoc creator/4.4/psoc creator/import/gnu/arm/5.4.1/bin/../lib/gcc/arm-none-eabi/5.4.1/armv6-m\libgcc.a(extendsfdf2.o)
 .data          0x00000000        0x0 c:/program files (x86)/cypress/psoc creator/4.4/psoc creator/import/gnu/arm/5.4.1/bin/../lib/gcc/arm-none-eabi/5.4.1/armv6-m\libgcc.a(truncdfsf2.o)
 .bss           0x00000000        0x0 c:/program files (x86)/cypress/psoc creator/4.4/psoc creator/import/gnu/arm/5.4.1/bin/../lib/gcc/arm-none-eabi/5.4.1/armv6-m\libgcc.a(truncdfsf2.o)
 .data          0x00000000        0x0 c:/program files (x86)/cypress/psoc creator/4.4/psoc creator/import/gnu/arm/5.4.1/bin/../lib/gcc/arm-none-eabi/5.4.1/armv6-m\libgcc.a(_clzsi2.o)
 .bss           0x00000000        0x0 c:/program files (x86)/cypress/psoc creator/4.4/psoc creator/import/gnu/arm/5.4.1/bin/../lib/gcc/arm-none-eabi/5.4.1/armv6-m\libgcc.a(_clzsi2.o)
 .text          0x00000000        0x0 c:/program files (x86)/cypress/psoc creator/4.4/psoc creator/import/gnu/arm/5.4.1/bin/../lib/gcc/arm-none-eabi/5.4.1/../../../../arm-none-eabi/lib/armv6-m\libg_nano.a(lib_a-atof.o)
 .data          0x00000000        0x0 c:/program files (x86)/cypress/psoc creator/4.4/psoc creator/import/gnu/arm/5.4.1/bin/../lib/gcc/arm-none-eabi/5.4.1/../../../../arm-none-eabi/lib/armv6-m\libg_nano.a(lib_a-atof.o)
 .bss           0x00000000        0x0 c:/program files (x86)/cypress/psoc creator/4.4/psoc creator/import/gnu/arm/5.4.1/bin/../lib/gcc/arm-none-eabi/5.4.1/../../../../arm-none-eabi/lib/armv6-m\libg_nano.a(lib_a-atof.o)
 .text          0x00000000        0x0 c:/program files (x86)/cypress/psoc creator/4.4/psoc creator/import/gnu/arm/5.4.1/bin/../lib/gcc/arm-none-eabi/5.4.1/../../../../arm-none-eabi/lib/armv6-m\libg_nano.a(lib_a-errno.o)
 .data          0x00000000        0x0 c:/program files (x86)/cypress/psoc creator/4.4/psoc creator/import/gnu/arm/5.4.1/bin/../lib/gcc/arm-none-eabi/5.4.1/../../../../arm-none-eabi/lib/armv6-m\libg_nano.a(lib_a-errno.o)
 .bss           0x00000000        0x0 c:/program files (x86)/cypress/psoc creator/4.4/psoc creator/import/gnu/arm/5.4.1/bin/../lib/gcc/arm-none-eabi/5.4.1/../../../../arm-none-eabi/lib/armv6-m\libg_nano.a(lib_a-errno.o)
 .text          0x00000000        0x0 c:/program files (x86)/cypress/psoc creator/4.4/psoc creator/import/gnu/arm/5.4.1/bin/../lib/gcc/arm-none-eabi/5.4.1/../../../../arm-none-eabi/lib/armv6-m\libg_nano.a(lib_a-exit.o)
 .data          0x00000000        0x0 c:/program files (x86)/cypress/psoc creator/4.4/psoc creator/import/gnu/arm/5.4.1/bin/../lib/gcc/arm-none-eabi/5.4.1/../../../../arm-none-eabi/lib/armv6-m\libg_nano.a(lib_a-exit.o)
 .bss           0x00000000        0x0 c:/program files (x86)/cypress/psoc creator/4.4/psoc creator/import/gnu/arm/5.4.1/bin/../lib/gcc/arm-none-eabi/5.4.1/../../../../arm-none-eabi/lib/armv6-m\libg_nano.a(lib_a-exit.o)
 .text.exit     0x00000000       0x2c c:/program files (x86)/cypress/psoc creator/4.4/psoc creator/import/gnu/arm/5.4.1/bin/../lib/gcc/arm-none-eabi/5.4.1/../../../../arm-none-eabi/lib/armv6-m\libg_nano.a(lib_a-exit.o)
 .text          0x00000000        0x0 c:/program files (x86)/cypress/psoc creator/4.4/psoc creator/import/gnu/arm/5.4.1/bin/../lib/gcc/arm-none-eabi/5.4.1/../../../../arm-none-eabi/lib/armv6-m\libg_nano.a(lib_a-impure.o)
 .data          0x00000000        0x0 c:/program files (x86)/cypress/psoc creator/4.4/psoc creator/import/gnu/arm/5.4.1/bin/../lib/gcc/arm-none-eabi/5.4.1/../../../../arm-none-eabi/lib/armv6-m\libg_nano.a(lib_a-impure.o)
 .bss           0x00000000        0x0 c:/program files (x86)/cypress/psoc creator/4.4/psoc creator/import/gnu/arm/5.4.1/bin/../lib/gcc/arm-none-eabi/5.4.1/../../../../arm-none-eabi/lib/armv6-m\libg_nano.a(lib_a-impure.o)
 .text          0x00000000        0x0 c:/program files (x86)/cypress/psoc creator/4.4/psoc creator/import/gnu/arm/5.4.1/bin/../lib/gcc/arm-none-eabi/5.4.1/../../../../arm-none-eabi/lib/armv6-m\libg_nano.a(lib_a-init.o)
 .data          0x00000000        0x0 c:/program files (x86)/cypress/psoc creator/4.4/psoc creator/import/gnu/arm/5.4.1/bin/../lib/gcc/arm-none-eabi/5.4.1/../../../../arm-none-eabi/lib/armv6-m\libg_nano.a(lib_a-init.o)
 .bss           0x00000000        0x0 c:/program files (x86)/cypress/psoc creator/4.4/psoc creator/import/gnu/arm/5.4.1/bin/../lib/gcc/arm-none-eabi/5.4.1/../../../../arm-none-eabi/lib/armv6-m\libg_nano.a(lib_a-init.o)
 .text          0x00000000        0x0 c:/program files (x86)/cypress/psoc creator/4.4/psoc creator/import/gnu/arm/5.4.1/bin/../lib/gcc/arm-none-eabi/5.4.1/../../../../arm-none-eabi/lib/armv6-m\libg_nano.a(lib_a-memcpy-stub.o)
 .data          0x00000000        0x0 c:/program files (x86)/cypress/psoc creator/4.4/psoc creator/import/gnu/arm/5.4.1/bin/../lib/gcc/arm-none-eabi/5.4.1/../../../../arm-none-eabi/lib/armv6-m\libg_nano.a(lib_a-memcpy-stub.o)
 .bss           0x00000000        0x0 c:/program files (x86)/cypress/psoc creator/4.4/psoc creator/import/gnu/arm/5.4.1/bin/../lib/gcc/arm-none-eabi/5.4.1/../../../../arm-none-eabi/lib/armv6-m\libg_nano.a(lib_a-memcpy-stub.o)
 .text          0x00000000        0x0 c:/program files (x86)/cypress/psoc creator/4.4/psoc creator/import/gnu/arm/5.4.1/bin/../lib/gcc/arm-none-eabi/5.4.1/../../../../arm-none-eabi/lib/armv6-m\libg_nano.a(lib_a-memset.o)
 .data          0x00000000        0x0 c:/program files (x86)/cypress/psoc creator/4.4/psoc creator/import/gnu/arm/5.4.1/bin/../lib/gcc/arm-none-eabi/5.4.1/../../../../arm-none-eabi/lib/armv6-m\libg_nano.a(lib_a-memset.o)
 .bss           0x00000000        0x0 c:/program files (x86)/cypress/psoc creator/4.4/psoc creator/import/gnu/arm/5.4.1/bin/../lib/gcc/arm-none-eabi/5.4.1/../../../../arm-none-eabi/lib/armv6-m\libg_nano.a(lib_a-memset.o)
 .text          0x00000000        0x0 c:/program files (x86)/cypress/psoc creator/4.4/psoc creator/import/gnu/arm/5.4.1/bin/../lib/gcc/arm-none-eabi/5.4.1/../../../../arm-none-eabi/lib/armv6-m\libg_nano.a(lib_a-printf.o)
 .data          0x00000000        0x0 c:/program files (x86)/cypress/psoc creator/4.4/psoc creator/import/gnu/arm/5.4.1/bin/../lib/gcc/arm-none-eabi/5.4.1/../../../../arm-none-eabi/lib/armv6-m\libg_nano.a(lib_a-printf.o)
 .bss           0x00000000        0x0 c:/program files (x86)/cypress/psoc creator/4.4/psoc creator/import/gnu/arm/5.4.1/bin/../lib/gcc/arm-none-eabi/5.4.1/../../../../arm-none-eabi/lib/armv6-m\libg_nano.a(lib_a-printf.o)
 .text._printf_r
                0x00000000       0x28 c:/program files (x86)/cypress/psoc creator/4.4/psoc creator/import/gnu/arm/5.4.1/bin/../lib/gcc/arm-none-eabi/5.4.1/../../../../arm-none-eabi/lib/armv6-m\libg_nano.a(lib_a-printf.o)
 .text          0x00000000        0x0 c:/program files (x86)/cypress/psoc creator/4.4/psoc creator/import/gnu/arm/5.4.1/bin/../lib/gcc/arm-none-eabi/5.4.1/../../../../arm-none-eabi/lib/armv6-m\libg_nano.a(lib_a-putchar.o)
 .data          0x00000000        0x0 c:/program files (x86)/cypress/psoc creator/4.4/psoc creator/import/gnu/arm/5.4.1/bin/../lib/gcc/arm-none-eabi/5.4.1/../../../../arm-none-eabi/lib/armv6-m\libg_nano.a(lib_a-putchar.o)
 .bss           0x00000000        0x0 c:/program files (x86)/cypress/psoc creator/4.4/psoc creator/import/gnu/arm/5.4.1/bin/../lib/gcc/arm-none-eabi/5.4.1/../../../../arm-none-eabi/lib/armv6-m\libg_nano.a(lib_a-putchar.o)
 .text._putchar_r
                0x00000000       0x20 c:/program files (x86)/cypress/psoc creator/4.4/psoc creator/import/gnu/arm/5.4.1/bin/../lib/gcc/arm-none-eabi/5.4.1/../../../../arm-none-eabi/lib/armv6-m\libg_nano.a(lib_a-putchar.o)
 .text          0x00000000        0x0 c:/program files (x86)/cypress/psoc creator/4.4/psoc creator/import/gnu/arm/5.4.1/bin/../lib/gcc/arm-none-eabi/5.4.1/../../../../arm-none-eabi/lib/armv6-m\libg_nano.a(lib_a-puts.o)
 .data          0x00000000        0x0 c:/program files (x86)/cypress/psoc creator/4.4/psoc creator/import/gnu/arm/5.4.1/bin/../lib/gcc/arm-none-eabi/5.4.1/../../../../arm-none-eabi/lib/armv6-m\libg_nano.a(lib_a-puts.o)
 .bss           0x00000000        0x0 c:/program files (x86)/cypress/psoc creator/4.4/psoc creator/import/gnu/arm/5.4.1/bin/../lib/gcc/arm-none-eabi/5.4.1/../../../../arm-none-eabi/lib/armv6-m\libg_nano.a(lib_a-puts.o)
 .text          0x00000000        0x0 c:/program files (x86)/cypress/psoc creator/4.4/psoc creator/import/gnu/arm/5.4.1/bin/../lib/gcc/arm-none-eabi/5.4.1/../../../../arm-none-eabi/lib/armv6-m\libg_nano.a(lib_a-strtod.o)
 .data          0x00000000        0x0 c:/program files (x86)/cypress/psoc creator/4.4/psoc creator/import/gnu/arm/5.4.1/bin/../lib/gcc/arm-none-eabi/5.4.1/../../../../arm-none-eabi/lib/armv6-m\libg_nano.a(lib_a-strtod.o)
 .bss           0x00000000        0x0 c:/program files (x86)/cypress/psoc creator/4.4/psoc creator/import/gnu/arm/5.4.1/bin/../lib/gcc/arm-none-eabi/5.4.1/../../../../arm-none-eabi/lib/armv6-m\libg_nano.a(lib_a-strtod.o)
 .text.strtof   0x00000000       0x34 c:/program files (x86)/cypress/psoc creator/4.4/psoc creator/import/gnu/arm/5.4.1/bin/../lib/gcc/arm-none-eabi/5.4.1/../../../../arm-none-eabi/lib/armv6-m\libg_nano.a(lib_a-strtod.o)
 .text          0x00000000        0x0 c:/program files (x86)/cypress/psoc creator/4.4/psoc creator/import/gnu/arm/5.4.1/bin/../lib/gcc/arm-none-eabi/5.4.1/../../../../arm-none-eabi/lib/armv6-m\libg_nano.a(lib_a-wbuf.o)
 .data          0x00000000        0x0 c:/program files (x86)/cypress/psoc creator/4.4/psoc creator/import/gnu/arm/5.4.1/bin/../lib/gcc/arm-none-eabi/5.4.1/../../../../arm-none-eabi/lib/armv6-m\libg_nano.a(lib_a-wbuf.o)
 .bss           0x00000000        0x0 c:/program files (x86)/cypress/psoc creator/4.4/psoc creator/import/gnu/arm/5.4.1/bin/../lib/gcc/arm-none-eabi/5.4.1/../../../../arm-none-eabi/lib/armv6-m\libg_nano.a(lib_a-wbuf.o)
 .text.__swbuf  0x00000000       0x14 c:/program files (x86)/cypress/psoc creator/4.4/psoc creator/import/gnu/arm/5.4.1/bin/../lib/gcc/arm-none-eabi/5.4.1/../../../../arm-none-eabi/lib/armv6-m\libg_nano.a(lib_a-wbuf.o)
 .text          0x00000000        0x0 c:/program files (x86)/cypress/psoc creator/4.4/psoc creator/import/gnu/arm/5.4.1/bin/../lib/gcc/arm-none-eabi/5.4.1/../../../../arm-none-eabi/lib/armv6-m\libg_nano.a(lib_a-wsetup.o)
 .data          0x00000000        0x0 c:/program files (x86)/cypress/psoc creator/4.4/psoc creator/import/gnu/arm/5.4.1/bin/../lib/gcc/arm-none-eabi/5.4.1/../../../../arm-none-eabi/lib/armv6-m\libg_nano.a(lib_a-wsetup.o)
 .bss           0x00000000        0x0 c:/program files (x86)/cypress/psoc creator/4.4/psoc creator/import/gnu/arm/5.4.1/bin/../lib/gcc/arm-none-eabi/5.4.1/../../../../arm-none-eabi/lib/armv6-m\libg_nano.a(lib_a-wsetup.o)
 .text          0x00000000        0x0 c:/program files (x86)/cypress/psoc creator/4.4/psoc creator/import/gnu/arm/5.4.1/bin/../lib/gcc/arm-none-eabi/5.4.1/../../../../arm-none-eabi/lib/armv6-m\libg_nano.a(lib_a-fflush.o)
 .data          0x00000000        0x0 c:/program files (x86)/cypress/psoc creator/4.4/psoc creator/import/gnu/arm/5.4.1/bin/../lib/gcc/arm-none-eabi/5.4.1/../../../../arm-none-eabi/lib/armv6-m\libg_nano.a(lib_a-fflush.o)
 .bss           0x00000000        0x0 c:/program files (x86)/cypress/psoc creator/4.4/psoc creator/import/gnu/arm/5.4.1/bin/../lib/gcc/arm-none-eabi/5.4.1/../../../../arm-none-eabi/lib/armv6-m\libg_nano.a(lib_a-fflush.o)
 .text.fflush   0x00000000       0x28 c:/program files (x86)/cypress/psoc creator/4.4/psoc creator/import/gnu/arm/5.4.1/bin/../lib/gcc/arm-none-eabi/5.4.1/../../../../arm-none-eabi/lib/armv6-m\libg_nano.a(lib_a-fflush.o)
 .text          0x00000000        0x0 c:/program files (x86)/cypress/psoc creator/4.4/psoc creator/import/gnu/arm/5.4.1/bin/../lib/gcc/arm-none-eabi/5.4.1/../../../../arm-none-eabi/lib/armv6-m\libg_nano.a(lib_a-findfp.o)
 .data          0x00000000        0x0 c:/program files (x86)/cypress/psoc creator/4.4/psoc creator/import/gnu/arm/5.4.1/bin/../lib/gcc/arm-none-eabi/5.4.1/../../../../arm-none-eabi/lib/armv6-m\libg_nano.a(lib_a-findfp.o)
 .bss           0x00000000        0x0 c:/program files (x86)/cypress/psoc creator/4.4/psoc creator/import/gnu/arm/5.4.1/bin/../lib/gcc/arm-none-eabi/5.4.1/../../../../arm-none-eabi/lib/armv6-m\libg_nano.a(lib_a-findfp.o)
 .text.__fp_unlock
                0x00000000        0x4 c:/program files (x86)/cypress/psoc creator/4.4/psoc creator/import/gnu/arm/5.4.1/bin/../lib/gcc/arm-none-eabi/5.4.1/../../../../arm-none-eabi/lib/armv6-m\libg_nano.a(lib_a-findfp.o)
 .text.__fp_lock
                0x00000000        0x4 c:/program files (x86)/cypress/psoc creator/4.4/psoc creator/import/gnu/arm/5.4.1/bin/../lib/gcc/arm-none-eabi/5.4.1/../../../../arm-none-eabi/lib/armv6-m\libg_nano.a(lib_a-findfp.o)
 .text._cleanup
                0x00000000       0x10 c:/program files (x86)/cypress/psoc creator/4.4/psoc creator/import/gnu/arm/5.4.1/bin/../lib/gcc/arm-none-eabi/5.4.1/../../../../arm-none-eabi/lib/armv6-m\libg_nano.a(lib_a-findfp.o)
 .text.__sfp_lock_acquire
                0x00000000        0x2 c:/program files (x86)/cypress/psoc creator/4.4/psoc creator/import/gnu/arm/5.4.1/bin/../lib/gcc/arm-none-eabi/5.4.1/../../../../arm-none-eabi/lib/armv6-m\libg_nano.a(lib_a-findfp.o)
 .text.__sfp_lock_release
                0x00000000        0x2 c:/program files (x86)/cypress/psoc creator/4.4/psoc creator/import/gnu/arm/5.4.1/bin/../lib/gcc/arm-none-eabi/5.4.1/../../../../arm-none-eabi/lib/armv6-m\libg_nano.a(lib_a-findfp.o)
 .text.__sinit_lock_acquire
                0x00000000        0x2 c:/program files (x86)/cypress/psoc creator/4.4/psoc creator/import/gnu/arm/5.4.1/bin/../lib/gcc/arm-none-eabi/5.4.1/../../../../arm-none-eabi/lib/armv6-m\libg_nano.a(lib_a-findfp.o)
 .text.__sinit_lock_release
                0x00000000        0x2 c:/program files (x86)/cypress/psoc creator/4.4/psoc creator/import/gnu/arm/5.4.1/bin/../lib/gcc/arm-none-eabi/5.4.1/../../../../arm-none-eabi/lib/armv6-m\libg_nano.a(lib_a-findfp.o)
 .text.__fp_lock_all
                0x00000000       0x18 c:/program files (x86)/cypress/psoc creator/4.4/psoc creator/import/gnu/arm/5.4.1/bin/../lib/gcc/arm-none-eabi/5.4.1/../../../../arm-none-eabi/lib/armv6-m\libg_nano.a(lib_a-findfp.o)
 .text.__fp_unlock_all
                0x00000000       0x18 c:/program files (x86)/cypress/psoc creator/4.4/psoc creator/import/gnu/arm/5.4.1/bin/../lib/gcc/arm-none-eabi/5.4.1/../../../../arm-none-eabi/lib/armv6-m\libg_nano.a(lib_a-findfp.o)
 .text          0x00000000        0x0 c:/program files (x86)/cypress/psoc creator/4.4/psoc creator/import/gnu/arm/5.4.1/bin/../lib/gcc/arm-none-eabi/5.4.1/../../../../arm-none-eabi/lib/armv6-m\libg_nano.a(lib_a-fwalk.o)
 .data          0x00000000        0x0 c:/program files (x86)/cypress/psoc creator/4.4/psoc creator/import/gnu/arm/5.4.1/bin/../lib/gcc/arm-none-eabi/5.4.1/../../../../arm-none-eabi/lib/armv6-m\libg_nano.a(lib_a-fwalk.o)
 .bss           0x00000000        0x0 c:/program files (x86)/cypress/psoc creator/4.4/psoc creator/import/gnu/arm/5.4.1/bin/../lib/gcc/arm-none-eabi/5.4.1/../../../../arm-none-eabi/lib/armv6-m\libg_nano.a(lib_a-fwalk.o)
 .text._fwalk   0x00000000       0x38 c:/program files (x86)/cypress/psoc creator/4.4/psoc creator/import/gnu/arm/5.4.1/bin/../lib/gcc/arm-none-eabi/5.4.1/../../../../arm-none-eabi/lib/armv6-m\libg_nano.a(lib_a-fwalk.o)
 .text          0x00000000        0x0 c:/program files (x86)/cypress/psoc creator/4.4/psoc creator/import/gnu/arm/5.4.1/bin/../lib/gcc/arm-none-eabi/5.4.1/../../../../arm-none-eabi/lib/armv6-m\libg_nano.a(lib_a-gdtoa-gethex.o)
 .data          0x00000000        0x0 c:/program files (x86)/cypress/psoc creator/4.4/psoc creator/import/gnu/arm/5.4.1/bin/../lib/gcc/arm-none-eabi/5.4.1/../../../../arm-none-eabi/lib/armv6-m\libg_nano.a(lib_a-gdtoa-gethex.o)
 .bss           0x00000000        0x0 c:/program files (x86)/cypress/psoc creator/4.4/psoc creator/import/gnu/arm/5.4.1/bin/../lib/gcc/arm-none-eabi/5.4.1/../../../../arm-none-eabi/lib/armv6-m\libg_nano.a(lib_a-gdtoa-gethex.o)
 .text          0x00000000        0x0 c:/program files (x86)/cypress/psoc creator/4.4/psoc creator/import/gnu/arm/5.4.1/bin/../lib/gcc/arm-none-eabi/5.4.1/../../../../arm-none-eabi/lib/armv6-m\libg_nano.a(lib_a-gdtoa-hexnan.o)
 .data          0x00000000        0x0 c:/program files (x86)/cypress/psoc creator/4.4/psoc creator/import/gnu/arm/5.4.1/bin/../lib/gcc/arm-none-eabi/5.4.1/../../../../arm-none-eabi/lib/armv6-m\libg_nano.a(lib_a-gdtoa-hexnan.o)
 .bss           0x00000000        0x0 c:/program files (x86)/cypress/psoc creator/4.4/psoc creator/import/gnu/arm/5.4.1/bin/../lib/gcc/arm-none-eabi/5.4.1/../../../../arm-none-eabi/lib/armv6-m\libg_nano.a(lib_a-gdtoa-hexnan.o)
 .text          0x00000000        0x0 c:/program files (x86)/cypress/psoc creator/4.4/psoc creator/import/gnu/arm/5.4.1/bin/../lib/gcc/arm-none-eabi/5.4.1/../../../../arm-none-eabi/lib/armv6-m\libg_nano.a(lib_a-locale.o)
 .data          0x00000000        0x0 c:/program files (x86)/cypress/psoc creator/4.4/psoc creator/import/gnu/arm/5.4.1/bin/../lib/gcc/arm-none-eabi/5.4.1/../../../../arm-none-eabi/lib/armv6-m\libg_nano.a(lib_a-locale.o)
 .bss           0x00000000        0x0 c:/program files (x86)/cypress/psoc creator/4.4/psoc creator/import/gnu/arm/5.4.1/bin/../lib/gcc/arm-none-eabi/5.4.1/../../../../arm-none-eabi/lib/armv6-m\libg_nano.a(lib_a-locale.o)
 .text._setlocale_r
                0x00000000       0x40 c:/program files (x86)/cypress/psoc creator/4.4/psoc creator/import/gnu/arm/5.4.1/bin/../lib/gcc/arm-none-eabi/5.4.1/../../../../arm-none-eabi/lib/armv6-m\libg_nano.a(lib_a-locale.o)
 .text.__locale_charset
                0x00000000        0x8 c:/program files (x86)/cypress/psoc creator/4.4/psoc creator/import/gnu/arm/5.4.1/bin/../lib/gcc/arm-none-eabi/5.4.1/../../../../arm-none-eabi/lib/armv6-m\libg_nano.a(lib_a-locale.o)
 .text.__locale_mb_cur_max
                0x00000000        0xc c:/program files (x86)/cypress/psoc creator/4.4/psoc creator/import/gnu/arm/5.4.1/bin/../lib/gcc/arm-none-eabi/5.4.1/../../../../arm-none-eabi/lib/armv6-m\libg_nano.a(lib_a-locale.o)
 .text.__locale_msgcharset
                0x00000000        0x8 c:/program files (x86)/cypress/psoc creator/4.4/psoc creator/import/gnu/arm/5.4.1/bin/../lib/gcc/arm-none-eabi/5.4.1/../../../../arm-none-eabi/lib/armv6-m\libg_nano.a(lib_a-locale.o)
 .text.__locale_cjk_lang
                0x00000000        0x4 c:/program files (x86)/cypress/psoc creator/4.4/psoc creator/import/gnu/arm/5.4.1/bin/../lib/gcc/arm-none-eabi/5.4.1/../../../../arm-none-eabi/lib/armv6-m\libg_nano.a(lib_a-locale.o)
 .text.setlocale
                0x00000000       0x14 c:/program files (x86)/cypress/psoc creator/4.4/psoc creator/import/gnu/arm/5.4.1/bin/../lib/gcc/arm-none-eabi/5.4.1/../../../../arm-none-eabi/lib/armv6-m\libg_nano.a(lib_a-locale.o)
 .text.localeconv
                0x00000000        0x8 c:/program files (x86)/cypress/psoc creator/4.4/psoc creator/import/gnu/arm/5.4.1/bin/../lib/gcc/arm-none-eabi/5.4.1/../../../../arm-none-eabi/lib/armv6-m\libg_nano.a(lib_a-locale.o)
 .data.lc_message_charset
                0x00000000       0x20 c:/program files (x86)/cypress/psoc creator/4.4/psoc creator/import/gnu/arm/5.4.1/bin/../lib/gcc/arm-none-eabi/5.4.1/../../../../arm-none-eabi/lib/armv6-m\libg_nano.a(lib_a-locale.o)
 .bss._PathLocale
                0x00000000        0x4 c:/program files (x86)/cypress/psoc creator/4.4/psoc creator/import/gnu/arm/5.4.1/bin/../lib/gcc/arm-none-eabi/5.4.1/../../../../arm-none-eabi/lib/armv6-m\libg_nano.a(lib_a-locale.o)
 .bss.__nlocale_changed
                0x00000000        0x4 c:/program files (x86)/cypress/psoc creator/4.4/psoc creator/import/gnu/arm/5.4.1/bin/../lib/gcc/arm-none-eabi/5.4.1/../../../../arm-none-eabi/lib/armv6-m\libg_nano.a(lib_a-locale.o)
 .bss.__mlocale_changed
                0x00000000        0x4 c:/program files (x86)/cypress/psoc creator/4.4/psoc creator/import/gnu/arm/5.4.1/bin/../lib/gcc/arm-none-eabi/5.4.1/../../../../arm-none-eabi/lib/armv6-m\libg_nano.a(lib_a-locale.o)
 .data.lc_ctype_charset
                0x00000000       0x20 c:/program files (x86)/cypress/psoc creator/4.4/psoc creator/import/gnu/arm/5.4.1/bin/../lib/gcc/arm-none-eabi/5.4.1/../../../../arm-none-eabi/lib/armv6-m\libg_nano.a(lib_a-locale.o)
 .data.__mb_cur_max
                0x00000000        0x4 c:/program files (x86)/cypress/psoc creator/4.4/psoc creator/import/gnu/arm/5.4.1/bin/../lib/gcc/arm-none-eabi/5.4.1/../../../../arm-none-eabi/lib/armv6-m\libg_nano.a(lib_a-locale.o)
 .text          0x00000000        0x0 c:/program files (x86)/cypress/psoc creator/4.4/psoc creator/import/gnu/arm/5.4.1/bin/../lib/gcc/arm-none-eabi/5.4.1/../../../../arm-none-eabi/lib/armv6-m\libg_nano.a(lib_a-makebuf.o)
 .data          0x00000000        0x0 c:/program files (x86)/cypress/psoc creator/4.4/psoc creator/import/gnu/arm/5.4.1/bin/../lib/gcc/arm-none-eabi/5.4.1/../../../../arm-none-eabi/lib/armv6-m\libg_nano.a(lib_a-makebuf.o)
 .bss           0x00000000        0x0 c:/program files (x86)/cypress/psoc creator/4.4/psoc creator/import/gnu/arm/5.4.1/bin/../lib/gcc/arm-none-eabi/5.4.1/../../../../arm-none-eabi/lib/armv6-m\libg_nano.a(lib_a-makebuf.o)
 .text          0x00000000        0x0 c:/program files (x86)/cypress/psoc creator/4.4/psoc creator/import/gnu/arm/5.4.1/bin/../lib/gcc/arm-none-eabi/5.4.1/../../../../arm-none-eabi/lib/armv6-m\libg_nano.a(lib_a-mprec.o)
 .data          0x00000000        0x0 c:/program files (x86)/cypress/psoc creator/4.4/psoc creator/import/gnu/arm/5.4.1/bin/../lib/gcc/arm-none-eabi/5.4.1/../../../../arm-none-eabi/lib/armv6-m\libg_nano.a(lib_a-mprec.o)
 .bss           0x00000000        0x0 c:/program files (x86)/cypress/psoc creator/4.4/psoc creator/import/gnu/arm/5.4.1/bin/../lib/gcc/arm-none-eabi/5.4.1/../../../../arm-none-eabi/lib/armv6-m\libg_nano.a(lib_a-mprec.o)
 .text._mprec_log10
                0x00000000       0x34 c:/program files (x86)/cypress/psoc creator/4.4/psoc creator/import/gnu/arm/5.4.1/bin/../lib/gcc/arm-none-eabi/5.4.1/../../../../arm-none-eabi/lib/armv6-m\libg_nano.a(lib_a-mprec.o)
 .rodata.__mprec_tinytens
                0x00000000       0x28 c:/program files (x86)/cypress/psoc creator/4.4/psoc creator/import/gnu/arm/5.4.1/bin/../lib/gcc/arm-none-eabi/5.4.1/../../../../arm-none-eabi/lib/armv6-m\libg_nano.a(lib_a-mprec.o)
 .text          0x00000000        0x0 c:/program files (x86)/cypress/psoc creator/4.4/psoc creator/import/gnu/arm/5.4.1/bin/../lib/gcc/arm-none-eabi/5.4.1/../../../../arm-none-eabi/lib/armv6-m\libg_nano.a(lib_a-nano-callocr.o)
 .data          0x00000000        0x0 c:/program files (x86)/cypress/psoc creator/4.4/psoc creator/import/gnu/arm/5.4.1/bin/../lib/gcc/arm-none-eabi/5.4.1/../../../../arm-none-eabi/lib/armv6-m\libg_nano.a(lib_a-nano-callocr.o)
 .bss           0x00000000        0x0 c:/program files (x86)/cypress/psoc creator/4.4/psoc creator/import/gnu/arm/5.4.1/bin/../lib/gcc/arm-none-eabi/5.4.1/../../../../arm-none-eabi/lib/armv6-m\libg_nano.a(lib_a-nano-callocr.o)
 .text          0x00000000        0x0 c:/program files (x86)/cypress/psoc creator/4.4/psoc creator/import/gnu/arm/5.4.1/bin/../lib/gcc/arm-none-eabi/5.4.1/../../../../arm-none-eabi/lib/armv6-m\libg_nano.a(lib_a-nano-freer.o)
 .data          0x00000000        0x0 c:/program files (x86)/cypress/psoc creator/4.4/psoc creator/import/gnu/arm/5.4.1/bin/../lib/gcc/arm-none-eabi/5.4.1/../../../../arm-none-eabi/lib/armv6-m\libg_nano.a(lib_a-nano-freer.o)
 .bss           0x00000000        0x0 c:/program files (x86)/cypress/psoc creator/4.4/psoc creator/import/gnu/arm/5.4.1/bin/../lib/gcc/arm-none-eabi/5.4.1/../../../../arm-none-eabi/lib/armv6-m\libg_nano.a(lib_a-nano-freer.o)
 .text          0x00000000        0x0 c:/program files (x86)/cypress/psoc creator/4.4/psoc creator/import/gnu/arm/5.4.1/bin/../lib/gcc/arm-none-eabi/5.4.1/../../../../arm-none-eabi/lib/armv6-m\libg_nano.a(lib_a-nano-mallocr.o)
 .data          0x00000000        0x0 c:/program files (x86)/cypress/psoc creator/4.4/psoc creator/import/gnu/arm/5.4.1/bin/../lib/gcc/arm-none-eabi/5.4.1/../../../../arm-none-eabi/lib/armv6-m\libg_nano.a(lib_a-nano-mallocr.o)
 .bss           0x00000000        0x0 c:/program files (x86)/cypress/psoc creator/4.4/psoc creator/import/gnu/arm/5.4.1/bin/../lib/gcc/arm-none-eabi/5.4.1/../../../../arm-none-eabi/lib/armv6-m\libg_nano.a(lib_a-nano-mallocr.o)
 .text          0x00000000        0x0 c:/program files (x86)/cypress/psoc creator/4.4/psoc creator/import/gnu/arm/5.4.1/bin/../lib/gcc/arm-none-eabi/5.4.1/../../../../arm-none-eabi/lib/armv6-m\libg_nano.a(lib_a-nano-vfprintf.o)
 .data          0x00000000        0x0 c:/program files (x86)/cypress/psoc creator/4.4/psoc creator/import/gnu/arm/5.4.1/bin/../lib/gcc/arm-none-eabi/5.4.1/../../../../arm-none-eabi/lib/armv6-m\libg_nano.a(lib_a-nano-vfprintf.o)
 .bss           0x00000000        0x0 c:/program files (x86)/cypress/psoc creator/4.4/psoc creator/import/gnu/arm/5.4.1/bin/../lib/gcc/arm-none-eabi/5.4.1/../../../../arm-none-eabi/lib/armv6-m\libg_nano.a(lib_a-nano-vfprintf.o)
 .text.__sprint_r
                0x00000000       0x1c c:/program files (x86)/cypress/psoc creator/4.4/psoc creator/import/gnu/arm/5.4.1/bin/../lib/gcc/arm-none-eabi/5.4.1/../../../../arm-none-eabi/lib/armv6-m\libg_nano.a(lib_a-nano-vfprintf.o)
 .text.vfprintf
                0x00000000       0x18 c:/program files (x86)/cypress/psoc creator/4.4/psoc creator/import/gnu/arm/5.4.1/bin/../lib/gcc/arm-none-eabi/5.4.1/../../../../arm-none-eabi/lib/armv6-m\libg_nano.a(lib_a-nano-vfprintf.o)
 .text          0x00000000        0x0 c:/program files (x86)/cypress/psoc creator/4.4/psoc creator/import/gnu/arm/5.4.1/bin/../lib/gcc/arm-none-eabi/5.4.1/../../../../arm-none-eabi/lib/armv6-m\libg_nano.a(lib_a-nano-vfprintf_i.o)
 .data          0x00000000        0x0 c:/program files (x86)/cypress/psoc creator/4.4/psoc creator/import/gnu/arm/5.4.1/bin/../lib/gcc/arm-none-eabi/5.4.1/../../../../arm-none-eabi/lib/armv6-m\libg_nano.a(lib_a-nano-vfprintf_i.o)
 .bss           0x00000000        0x0 c:/program files (x86)/cypress/psoc creator/4.4/psoc creator/import/gnu/arm/5.4.1/bin/../lib/gcc/arm-none-eabi/5.4.1/../../../../arm-none-eabi/lib/armv6-m\libg_nano.a(lib_a-nano-vfprintf_i.o)
 .text          0x00000000        0x0 c:/program files (x86)/cypress/psoc creator/4.4/psoc creator/import/gnu/arm/5.4.1/bin/../lib/gcc/arm-none-eabi/5.4.1/../../../../arm-none-eabi/lib/armv6-m\libg_nano.a(lib_a-putc.o)
 .data          0x00000000        0x0 c:/program files (x86)/cypress/psoc creator/4.4/psoc creator/import/gnu/arm/5.4.1/bin/../lib/gcc/arm-none-eabi/5.4.1/../../../../arm-none-eabi/lib/armv6-m\libg_nano.a(lib_a-putc.o)
 .bss           0x00000000        0x0 c:/program files (x86)/cypress/psoc creator/4.4/psoc creator/import/gnu/arm/5.4.1/bin/../lib/gcc/arm-none-eabi/5.4.1/../../../../arm-none-eabi/lib/armv6-m\libg_nano.a(lib_a-putc.o)
 .text.putc     0x00000000       0x14 c:/program files (x86)/cypress/psoc creator/4.4/psoc creator/import/gnu/arm/5.4.1/bin/../lib/gcc/arm-none-eabi/5.4.1/../../../../arm-none-eabi/lib/armv6-m\libg_nano.a(lib_a-putc.o)
 .text          0x00000000        0x0 c:/program files (x86)/cypress/psoc creator/4.4/psoc creator/import/gnu/arm/5.4.1/bin/../lib/gcc/arm-none-eabi/5.4.1/../../../../arm-none-eabi/lib/armv6-m\libg_nano.a(lib_a-sbrkr.o)
 .data          0x00000000        0x0 c:/program files (x86)/cypress/psoc creator/4.4/psoc creator/import/gnu/arm/5.4.1/bin/../lib/gcc/arm-none-eabi/5.4.1/../../../../arm-none-eabi/lib/armv6-m\libg_nano.a(lib_a-sbrkr.o)
 .bss           0x00000000        0x0 c:/program files (x86)/cypress/psoc creator/4.4/psoc creator/import/gnu/arm/5.4.1/bin/../lib/gcc/arm-none-eabi/5.4.1/../../../../arm-none-eabi/lib/armv6-m\libg_nano.a(lib_a-sbrkr.o)
 .text          0x00000000        0x0 c:/program files (x86)/cypress/psoc creator/4.4/psoc creator/import/gnu/arm/5.4.1/bin/../lib/gcc/arm-none-eabi/5.4.1/../../../../arm-none-eabi/lib/armv6-m\libg_nano.a(lib_a-sf_nan.o)
 .data          0x00000000        0x0 c:/program files (x86)/cypress/psoc creator/4.4/psoc creator/import/gnu/arm/5.4.1/bin/../lib/gcc/arm-none-eabi/5.4.1/../../../../arm-none-eabi/lib/armv6-m\libg_nano.a(lib_a-sf_nan.o)
 .bss           0x00000000        0x0 c:/program files (x86)/cypress/psoc creator/4.4/psoc creator/import/gnu/arm/5.4.1/bin/../lib/gcc/arm-none-eabi/5.4.1/../../../../arm-none-eabi/lib/armv6-m\libg_nano.a(lib_a-sf_nan.o)
 .text.nanf     0x00000000        0x8 c:/program files (x86)/cypress/psoc creator/4.4/psoc creator/import/gnu/arm/5.4.1/bin/../lib/gcc/arm-none-eabi/5.4.1/../../../../arm-none-eabi/lib/armv6-m\libg_nano.a(lib_a-sf_nan.o)
 .text          0x00000000        0x0 c:/program files (x86)/cypress/psoc creator/4.4/psoc creator/import/gnu/arm/5.4.1/bin/../lib/gcc/arm-none-eabi/5.4.1/../../../../arm-none-eabi/lib/armv6-m\libg_nano.a(lib_a-stdio.o)
 .data          0x00000000        0x0 c:/program files (x86)/cypress/psoc creator/4.4/psoc creator/import/gnu/arm/5.4.1/bin/../lib/gcc/arm-none-eabi/5.4.1/../../../../arm-none-eabi/lib/armv6-m\libg_nano.a(lib_a-stdio.o)
 .bss           0x00000000        0x0 c:/program files (x86)/cypress/psoc creator/4.4/psoc creator/import/gnu/arm/5.4.1/bin/../lib/gcc/arm-none-eabi/5.4.1/../../../../arm-none-eabi/lib/armv6-m\libg_nano.a(lib_a-stdio.o)
 .text.__seofread
                0x00000000        0x4 c:/program files (x86)/cypress/psoc creator/4.4/psoc creator/import/gnu/arm/5.4.1/bin/../lib/gcc/arm-none-eabi/5.4.1/../../../../arm-none-eabi/lib/armv6-m\libg_nano.a(lib_a-stdio.o)
 .text          0x00000000       0x14 c:/program files (x86)/cypress/psoc creator/4.4/psoc creator/import/gnu/arm/5.4.1/bin/../lib/gcc/arm-none-eabi/5.4.1/../../../../arm-none-eabi/lib/armv6-m\libg_nano.a(lib_a-strcmp.o)
 .data          0x00000000        0x0 c:/program files (x86)/cypress/psoc creator/4.4/psoc creator/import/gnu/arm/5.4.1/bin/../lib/gcc/arm-none-eabi/5.4.1/../../../../arm-none-eabi/lib/armv6-m\libg_nano.a(lib_a-strcmp.o)
 .bss           0x00000000        0x0 c:/program files (x86)/cypress/psoc creator/4.4/psoc creator/import/gnu/arm/5.4.1/bin/../lib/gcc/arm-none-eabi/5.4.1/../../../../arm-none-eabi/lib/armv6-m\libg_nano.a(lib_a-strcmp.o)
 .data          0x00000000        0x0 c:/program files (x86)/cypress/psoc creator/4.4/psoc creator/import/gnu/arm/5.4.1/bin/../lib/gcc/arm-none-eabi/5.4.1/../../../../arm-none-eabi/lib/armv6-m\libg_nano.a(lib_a-strlen.o)
 .bss           0x00000000        0x0 c:/program files (x86)/cypress/psoc creator/4.4/psoc creator/import/gnu/arm/5.4.1/bin/../lib/gcc/arm-none-eabi/5.4.1/../../../../arm-none-eabi/lib/armv6-m\libg_nano.a(lib_a-strlen.o)
 .text          0x00000000        0x0 c:/program files (x86)/cypress/psoc creator/4.4/psoc creator/import/gnu/arm/5.4.1/bin/../lib/gcc/arm-none-eabi/5.4.1/../../../../arm-none-eabi/lib/armv6-m\libg_nano.a(lib_a-strncmp.o)
 .data          0x00000000        0x0 c:/program files (x86)/cypress/psoc creator/4.4/psoc creator/import/gnu/arm/5.4.1/bin/../lib/gcc/arm-none-eabi/5.4.1/../../../../arm-none-eabi/lib/armv6-m\libg_nano.a(lib_a-strncmp.o)
 .bss           0x00000000        0x0 c:/program files (x86)/cypress/psoc creator/4.4/psoc creator/import/gnu/arm/5.4.1/bin/../lib/gcc/arm-none-eabi/5.4.1/../../../../arm-none-eabi/lib/armv6-m\libg_nano.a(lib_a-strncmp.o)
 .text          0x00000000        0x0 c:/program files (x86)/cypress/psoc creator/4.4/psoc creator/import/gnu/arm/5.4.1/bin/../lib/gcc/arm-none-eabi/5.4.1/../../../../arm-none-eabi/lib/armv6-m\libg_nano.a(lib_a-writer.o)
 .data          0x00000000        0x0 c:/program files (x86)/cypress/psoc creator/4.4/psoc creator/import/gnu/arm/5.4.1/bin/../lib/gcc/arm-none-eabi/5.4.1/../../../../arm-none-eabi/lib/armv6-m\libg_nano.a(lib_a-writer.o)
 .bss           0x00000000        0x0 c:/program files (x86)/cypress/psoc creator/4.4/psoc creator/import/gnu/arm/5.4.1/bin/../lib/gcc/arm-none-eabi/5.4.1/../../../../arm-none-eabi/lib/armv6-m\libg_nano.a(lib_a-writer.o)
 .text          0x00000000        0x0 c:/program files (x86)/cypress/psoc creator/4.4/psoc creator/import/gnu/arm/5.4.1/bin/../lib/gcc/arm-none-eabi/5.4.1/../../../../arm-none-eabi/lib/armv6-m\libg_nano.a(lib_a-closer.o)
 .data          0x00000000        0x0 c:/program files (x86)/cypress/psoc creator/4.4/psoc creator/import/gnu/arm/5.4.1/bin/../lib/gcc/arm-none-eabi/5.4.1/../../../../arm-none-eabi/lib/armv6-m\libg_nano.a(lib_a-closer.o)
 .bss           0x00000000        0x0 c:/program files (x86)/cypress/psoc creator/4.4/psoc creator/import/gnu/arm/5.4.1/bin/../lib/gcc/arm-none-eabi/5.4.1/../../../../arm-none-eabi/lib/armv6-m\libg_nano.a(lib_a-closer.o)
 .text          0x00000000        0x0 c:/program files (x86)/cypress/psoc creator/4.4/psoc creator/import/gnu/arm/5.4.1/bin/../lib/gcc/arm-none-eabi/5.4.1/../../../../arm-none-eabi/lib/armv6-m\libg_nano.a(lib_a-fstatr.o)
 .data          0x00000000        0x0 c:/program files (x86)/cypress/psoc creator/4.4/psoc creator/import/gnu/arm/5.4.1/bin/../lib/gcc/arm-none-eabi/5.4.1/../../../../arm-none-eabi/lib/armv6-m\libg_nano.a(lib_a-fstatr.o)
 .bss           0x00000000        0x0 c:/program files (x86)/cypress/psoc creator/4.4/psoc creator/import/gnu/arm/5.4.1/bin/../lib/gcc/arm-none-eabi/5.4.1/../../../../arm-none-eabi/lib/armv6-m\libg_nano.a(lib_a-fstatr.o)
 .text          0x00000000        0x0 c:/program files (x86)/cypress/psoc creator/4.4/psoc creator/import/gnu/arm/5.4.1/bin/../lib/gcc/arm-none-eabi/5.4.1/../../../../arm-none-eabi/lib/armv6-m\libg_nano.a(lib_a-fvwrite.o)
 .data          0x00000000        0x0 c:/program files (x86)/cypress/psoc creator/4.4/psoc creator/import/gnu/arm/5.4.1/bin/../lib/gcc/arm-none-eabi/5.4.1/../../../../arm-none-eabi/lib/armv6-m\libg_nano.a(lib_a-fvwrite.o)
 .bss           0x00000000        0x0 c:/program files (x86)/cypress/psoc creator/4.4/psoc creator/import/gnu/arm/5.4.1/bin/../lib/gcc/arm-none-eabi/5.4.1/../../../../arm-none-eabi/lib/armv6-m\libg_nano.a(lib_a-fvwrite.o)
 .text.__sfvwrite_r
                0x00000000      0x2d0 c:/program files (x86)/cypress/psoc creator/4.4/psoc creator/import/gnu/arm/5.4.1/bin/../lib/gcc/arm-none-eabi/5.4.1/../../../../arm-none-eabi/lib/armv6-m\libg_nano.a(lib_a-fvwrite.o)
 .text          0x00000000        0x0 c:/program files (x86)/cypress/psoc creator/4.4/psoc creator/import/gnu/arm/5.4.1/bin/../lib/gcc/arm-none-eabi/5.4.1/../../../../arm-none-eabi/lib/armv6-m\libg_nano.a(lib_a-isattyr.o)
 .data          0x00000000        0x0 c:/program files (x86)/cypress/psoc creator/4.4/psoc creator/import/gnu/arm/5.4.1/bin/../lib/gcc/arm-none-eabi/5.4.1/../../../../arm-none-eabi/lib/armv6-m\libg_nano.a(lib_a-isattyr.o)
 .bss           0x00000000        0x0 c:/program files (x86)/cypress/psoc creator/4.4/psoc creator/import/gnu/arm/5.4.1/bin/../lib/gcc/arm-none-eabi/5.4.1/../../../../arm-none-eabi/lib/armv6-m\libg_nano.a(lib_a-isattyr.o)
 .text          0x00000000        0x0 c:/program files (x86)/cypress/psoc creator/4.4/psoc creator/import/gnu/arm/5.4.1/bin/../lib/gcc/arm-none-eabi/5.4.1/../../../../arm-none-eabi/lib/armv6-m\libg_nano.a(lib_a-lseekr.o)
 .data          0x00000000        0x0 c:/program files (x86)/cypress/psoc creator/4.4/psoc creator/import/gnu/arm/5.4.1/bin/../lib/gcc/arm-none-eabi/5.4.1/../../../../arm-none-eabi/lib/armv6-m\libg_nano.a(lib_a-lseekr.o)
 .bss           0x00000000        0x0 c:/program files (x86)/cypress/psoc creator/4.4/psoc creator/import/gnu/arm/5.4.1/bin/../lib/gcc/arm-none-eabi/5.4.1/../../../../arm-none-eabi/lib/armv6-m\libg_nano.a(lib_a-lseekr.o)
 .text          0x00000000        0x0 c:/program files (x86)/cypress/psoc creator/4.4/psoc creator/import/gnu/arm/5.4.1/bin/../lib/gcc/arm-none-eabi/5.4.1/../../../../arm-none-eabi/lib/armv6-m\libg_nano.a(lib_a-malloc.o)
 .data          0x00000000        0x0 c:/program files (x86)/cypress/psoc creator/4.4/psoc creator/import/gnu/arm/5.4.1/bin/../lib/gcc/arm-none-eabi/5.4.1/../../../../arm-none-eabi/lib/armv6-m\libg_nano.a(lib_a-malloc.o)
 .bss           0x00000000        0x0 c:/program files (x86)/cypress/psoc creator/4.4/psoc creator/import/gnu/arm/5.4.1/bin/../lib/gcc/arm-none-eabi/5.4.1/../../../../arm-none-eabi/lib/armv6-m\libg_nano.a(lib_a-malloc.o)
 .text.free     0x00000000       0x14 c:/program files (x86)/cypress/psoc creator/4.4/psoc creator/import/gnu/arm/5.4.1/bin/../lib/gcc/arm-none-eabi/5.4.1/../../../../arm-none-eabi/lib/armv6-m\libg_nano.a(lib_a-malloc.o)
 .text          0x00000000        0x0 c:/program files (x86)/cypress/psoc creator/4.4/psoc creator/import/gnu/arm/5.4.1/bin/../lib/gcc/arm-none-eabi/5.4.1/../../../../arm-none-eabi/lib/armv6-m\libg_nano.a(lib_a-memchr-stub.o)
 .data          0x00000000        0x0 c:/program files (x86)/cypress/psoc creator/4.4/psoc creator/import/gnu/arm/5.4.1/bin/../lib/gcc/arm-none-eabi/5.4.1/../../../../arm-none-eabi/lib/armv6-m\libg_nano.a(lib_a-memchr-stub.o)
 .bss           0x00000000        0x0 c:/program files (x86)/cypress/psoc creator/4.4/psoc creator/import/gnu/arm/5.4.1/bin/../lib/gcc/arm-none-eabi/5.4.1/../../../../arm-none-eabi/lib/armv6-m\libg_nano.a(lib_a-memchr-stub.o)
 .text          0x00000000        0x0 c:/program files (x86)/cypress/psoc creator/4.4/psoc creator/import/gnu/arm/5.4.1/bin/../lib/gcc/arm-none-eabi/5.4.1/../../../../arm-none-eabi/lib/armv6-m\libg_nano.a(lib_a-memmove.o)
 .data          0x00000000        0x0 c:/program files (x86)/cypress/psoc creator/4.4/psoc creator/import/gnu/arm/5.4.1/bin/../lib/gcc/arm-none-eabi/5.4.1/../../../../arm-none-eabi/lib/armv6-m\libg_nano.a(lib_a-memmove.o)
 .bss           0x00000000        0x0 c:/program files (x86)/cypress/psoc creator/4.4/psoc creator/import/gnu/arm/5.4.1/bin/../lib/gcc/arm-none-eabi/5.4.1/../../../../arm-none-eabi/lib/armv6-m\libg_nano.a(lib_a-memmove.o)
 .text.memmove  0x00000000       0x2a c:/program files (x86)/cypress/psoc creator/4.4/psoc creator/import/gnu/arm/5.4.1/bin/../lib/gcc/arm-none-eabi/5.4.1/../../../../arm-none-eabi/lib/armv6-m\libg_nano.a(lib_a-memmove.o)
 .text          0x00000000        0x0 c:/program files (x86)/cypress/psoc creator/4.4/psoc creator/import/gnu/arm/5.4.1/bin/../lib/gcc/arm-none-eabi/5.4.1/../../../../arm-none-eabi/lib/armv6-m\libg_nano.a(lib_a-mlock.o)
 .data          0x00000000        0x0 c:/program files (x86)/cypress/psoc creator/4.4/psoc creator/import/gnu/arm/5.4.1/bin/../lib/gcc/arm-none-eabi/5.4.1/../../../../arm-none-eabi/lib/armv6-m\libg_nano.a(lib_a-mlock.o)
 .bss           0x00000000        0x0 c:/program files (x86)/cypress/psoc creator/4.4/psoc creator/import/gnu/arm/5.4.1/bin/../lib/gcc/arm-none-eabi/5.4.1/../../../../arm-none-eabi/lib/armv6-m\libg_nano.a(lib_a-mlock.o)
 .text          0x00000000        0x0 c:/program files (x86)/cypress/psoc creator/4.4/psoc creator/import/gnu/arm/5.4.1/bin/../lib/gcc/arm-none-eabi/5.4.1/../../../../arm-none-eabi/lib/armv6-m\libg_nano.a(lib_a-nano-reallocr.o)
 .data          0x00000000        0x0 c:/program files (x86)/cypress/psoc creator/4.4/psoc creator/import/gnu/arm/5.4.1/bin/../lib/gcc/arm-none-eabi/5.4.1/../../../../arm-none-eabi/lib/armv6-m\libg_nano.a(lib_a-nano-reallocr.o)
 .bss           0x00000000        0x0 c:/program files (x86)/cypress/psoc creator/4.4/psoc creator/import/gnu/arm/5.4.1/bin/../lib/gcc/arm-none-eabi/5.4.1/../../../../arm-none-eabi/lib/armv6-m\libg_nano.a(lib_a-nano-reallocr.o)
 .text._realloc_r
                0x00000000       0x4c c:/program files (x86)/cypress/psoc creator/4.4/psoc creator/import/gnu/arm/5.4.1/bin/../lib/gcc/arm-none-eabi/5.4.1/../../../../arm-none-eabi/lib/armv6-m\libg_nano.a(lib_a-nano-reallocr.o)
 .text          0x00000000        0x0 c:/program files (x86)/cypress/psoc creator/4.4/psoc creator/import/gnu/arm/5.4.1/bin/../lib/gcc/arm-none-eabi/5.4.1/../../../../arm-none-eabi/lib/armv6-m\libg_nano.a(lib_a-readr.o)
 .data          0x00000000        0x0 c:/program files (x86)/cypress/psoc creator/4.4/psoc creator/import/gnu/arm/5.4.1/bin/../lib/gcc/arm-none-eabi/5.4.1/../../../../arm-none-eabi/lib/armv6-m\libg_nano.a(lib_a-readr.o)
 .bss           0x00000000        0x0 c:/program files (x86)/cypress/psoc creator/4.4/psoc creator/import/gnu/arm/5.4.1/bin/../lib/gcc/arm-none-eabi/5.4.1/../../../../arm-none-eabi/lib/armv6-m\libg_nano.a(lib_a-readr.o)
 .text          0x00000000        0x0 c:/program files (x86)/cypress/psoc creator/4.4/psoc creator/import/gnu/arm/5.4.1/bin/../lib/gcc/arm-none-eabi/5.4.1/../../../../arm-none-eabi/lib/armv6-m\libg_nano.a(lib_a-reent.o)
 .data          0x00000000        0x0 c:/program files (x86)/cypress/psoc creator/4.4/psoc creator/import/gnu/arm/5.4.1/bin/../lib/gcc/arm-none-eabi/5.4.1/../../../../arm-none-eabi/lib/armv6-m\libg_nano.a(lib_a-reent.o)
 .bss           0x00000000        0x0 c:/program files (x86)/cypress/psoc creator/4.4/psoc creator/import/gnu/arm/5.4.1/bin/../lib/gcc/arm-none-eabi/5.4.1/../../../../arm-none-eabi/lib/armv6-m\libg_nano.a(lib_a-reent.o)
 .text.cleanup_glue
                0x00000000       0x1a c:/program files (x86)/cypress/psoc creator/4.4/psoc creator/import/gnu/arm/5.4.1/bin/../lib/gcc/arm-none-eabi/5.4.1/../../../../arm-none-eabi/lib/armv6-m\libg_nano.a(lib_a-reent.o)
 .text._reclaim_reent
                0x00000000       0xcc c:/program files (x86)/cypress/psoc creator/4.4/psoc creator/import/gnu/arm/5.4.1/bin/../lib/gcc/arm-none-eabi/5.4.1/../../../../arm-none-eabi/lib/armv6-m\libg_nano.a(lib_a-reent.o)
 .text          0x00000000        0x0 c:/program files (x86)/cypress/psoc creator/4.4/psoc creator/import/gnu/arm/5.4.1/bin/../lib/gcc/arm-none-eabi/5.4.1/../../../../arm-none-eabi/lib/armv6-m\libg_nano.a(lib_a-nano-msizer.o)
 .data          0x00000000        0x0 c:/program files (x86)/cypress/psoc creator/4.4/psoc creator/import/gnu/arm/5.4.1/bin/../lib/gcc/arm-none-eabi/5.4.1/../../../../arm-none-eabi/lib/armv6-m\libg_nano.a(lib_a-nano-msizer.o)
 .bss           0x00000000        0x0 c:/program files (x86)/cypress/psoc creator/4.4/psoc creator/import/gnu/arm/5.4.1/bin/../lib/gcc/arm-none-eabi/5.4.1/../../../../arm-none-eabi/lib/armv6-m\libg_nano.a(lib_a-nano-msizer.o)
 .text._malloc_usable_size_r
                0x00000000       0x16 c:/program files (x86)/cypress/psoc creator/4.4/psoc creator/import/gnu/arm/5.4.1/bin/../lib/gcc/arm-none-eabi/5.4.1/../../../../arm-none-eabi/lib/armv6-m\libg_nano.a(lib_a-nano-msizer.o)
 .data          0x00000000        0x0 c:/program files (x86)/cypress/psoc creator/4.4/psoc creator/import/gnu/arm/5.4.1/bin/../lib/gcc/arm-none-eabi/5.4.1/armv6-m\libgcc.a(_thumb1_case_uqi.o)
 .bss           0x00000000        0x0 c:/program files (x86)/cypress/psoc creator/4.4/psoc creator/import/gnu/arm/5.4.1/bin/../lib/gcc/arm-none-eabi/5.4.1/armv6-m\libgcc.a(_thumb1_case_uqi.o)
 .data          0x00000000        0x0 c:/program files (x86)/cypress/psoc creator/4.4/psoc creator/import/gnu/arm/5.4.1/bin/../lib/gcc/arm-none-eabi/5.4.1/armv6-m\libgcc.a(adddf3.o)
 .bss           0x00000000        0x0 c:/program files (x86)/cypress/psoc creator/4.4/psoc creator/import/gnu/arm/5.4.1/bin/../lib/gcc/arm-none-eabi/5.4.1/armv6-m\libgcc.a(adddf3.o)
 .text          0x00000000       0x40 c:/program files (x86)/cypress/psoc creator/4.4/psoc creator/import/gnu/arm/5.4.1/bin/../lib/gcc/arm-none-eabi/5.4.1/armv6-m\libgcc.a(unorddf2.o)
 .data          0x00000000        0x0 c:/program files (x86)/cypress/psoc creator/4.4/psoc creator/import/gnu/arm/5.4.1/bin/../lib/gcc/arm-none-eabi/5.4.1/armv6-m\libgcc.a(unorddf2.o)
 .bss           0x00000000        0x0 c:/program files (x86)/cypress/psoc creator/4.4/psoc creator/import/gnu/arm/5.4.1/bin/../lib/gcc/arm-none-eabi/5.4.1/armv6-m\libgcc.a(unorddf2.o)
 .data          0x00000000        0x0 c:/program files (x86)/cypress/psoc creator/4.4/psoc creator/import/gnu/arm/5.4.1/bin/../lib/gcc/arm-none-eabi/5.4.1/armv6-m\libgcc.a(floatsidf.o)
 .bss           0x00000000        0x0 c:/program files (x86)/cypress/psoc creator/4.4/psoc creator/import/gnu/arm/5.4.1/bin/../lib/gcc/arm-none-eabi/5.4.1/armv6-m\libgcc.a(floatsidf.o)
 .text          0x00000000        0x0 c:/program files (x86)/cypress/psoc creator/4.4/psoc creator/import/gnu/arm/5.4.1/bin/../lib/gcc/arm-none-eabi/5.4.1/armv6-m/crtend.o
 .data          0x00000000        0x0 c:/program files (x86)/cypress/psoc creator/4.4/psoc creator/import/gnu/arm/5.4.1/bin/../lib/gcc/arm-none-eabi/5.4.1/armv6-m/crtend.o
 .bss           0x00000000        0x0 c:/program files (x86)/cypress/psoc creator/4.4/psoc creator/import/gnu/arm/5.4.1/bin/../lib/gcc/arm-none-eabi/5.4.1/armv6-m/crtend.o
 .text          0x00000000        0x0 c:/program files (x86)/cypress/psoc creator/4.4/psoc creator/import/gnu/arm/5.4.1/bin/../lib/gcc/arm-none-eabi/5.4.1/armv6-m/crtn.o
 .data          0x00000000        0x0 c:/program files (x86)/cypress/psoc creator/4.4/psoc creator/import/gnu/arm/5.4.1/bin/../lib/gcc/arm-none-eabi/5.4.1/armv6-m/crtn.o
 .bss           0x00000000        0x0 c:/program files (x86)/cypress/psoc creator/4.4/psoc creator/import/gnu/arm/5.4.1/bin/../lib/gcc/arm-none-eabi/5.4.1/armv6-m/crtn.o
 .text          0x00000000        0x0 c:/program files (x86)/cypress/psoc creator/4.4/psoc creator/import/gnu/arm/5.4.1/bin/../lib/gcc/arm-none-eabi/5.4.1/../../../../arm-none-eabi/lib/armv6-m\libnosys.a(close.o)
 .data          0x00000000        0x0 c:/program files (x86)/cypress/psoc creator/4.4/psoc creator/import/gnu/arm/5.4.1/bin/../lib/gcc/arm-none-eabi/5.4.1/../../../../arm-none-eabi/lib/armv6-m\libnosys.a(close.o)
 .bss           0x00000000        0x0 c:/program files (x86)/cypress/psoc creator/4.4/psoc creator/import/gnu/arm/5.4.1/bin/../lib/gcc/arm-none-eabi/5.4.1/../../../../arm-none-eabi/lib/armv6-m\libnosys.a(close.o)
 .text          0x00000000        0x0 c:/program files (x86)/cypress/psoc creator/4.4/psoc creator/import/gnu/arm/5.4.1/bin/../lib/gcc/arm-none-eabi/5.4.1/../../../../arm-none-eabi/lib/armv6-m\libnosys.a(fstat.o)
 .data          0x00000000        0x0 c:/program files (x86)/cypress/psoc creator/4.4/psoc creator/import/gnu/arm/5.4.1/bin/../lib/gcc/arm-none-eabi/5.4.1/../../../../arm-none-eabi/lib/armv6-m\libnosys.a(fstat.o)
 .bss           0x00000000        0x0 c:/program files (x86)/cypress/psoc creator/4.4/psoc creator/import/gnu/arm/5.4.1/bin/../lib/gcc/arm-none-eabi/5.4.1/../../../../arm-none-eabi/lib/armv6-m\libnosys.a(fstat.o)
 .text          0x00000000        0x0 c:/program files (x86)/cypress/psoc creator/4.4/psoc creator/import/gnu/arm/5.4.1/bin/../lib/gcc/arm-none-eabi/5.4.1/../../../../arm-none-eabi/lib/armv6-m\libnosys.a(isatty.o)
 .data          0x00000000        0x0 c:/program files (x86)/cypress/psoc creator/4.4/psoc creator/import/gnu/arm/5.4.1/bin/../lib/gcc/arm-none-eabi/5.4.1/../../../../arm-none-eabi/lib/armv6-m\libnosys.a(isatty.o)
 .bss           0x00000000        0x0 c:/program files (x86)/cypress/psoc creator/4.4/psoc creator/import/gnu/arm/5.4.1/bin/../lib/gcc/arm-none-eabi/5.4.1/../../../../arm-none-eabi/lib/armv6-m\libnosys.a(isatty.o)
 .text          0x00000000        0x0 c:/program files (x86)/cypress/psoc creator/4.4/psoc creator/import/gnu/arm/5.4.1/bin/../lib/gcc/arm-none-eabi/5.4.1/../../../../arm-none-eabi/lib/armv6-m\libnosys.a(lseek.o)
 .data          0x00000000        0x0 c:/program files (x86)/cypress/psoc creator/4.4/psoc creator/import/gnu/arm/5.4.1/bin/../lib/gcc/arm-none-eabi/5.4.1/../../../../arm-none-eabi/lib/armv6-m\libnosys.a(lseek.o)
 .bss           0x00000000        0x0 c:/program files (x86)/cypress/psoc creator/4.4/psoc creator/import/gnu/arm/5.4.1/bin/../lib/gcc/arm-none-eabi/5.4.1/../../../../arm-none-eabi/lib/armv6-m\libnosys.a(lseek.o)
 .text          0x00000000        0x0 c:/program files (x86)/cypress/psoc creator/4.4/psoc creator/import/gnu/arm/5.4.1/bin/../lib/gcc/arm-none-eabi/5.4.1/../../../../arm-none-eabi/lib/armv6-m\libnosys.a(read.o)
 .data          0x00000000        0x0 c:/program files (x86)/cypress/psoc creator/4.4/psoc creator/import/gnu/arm/5.4.1/bin/../lib/gcc/arm-none-eabi/5.4.1/../../../../arm-none-eabi/lib/armv6-m\libnosys.a(read.o)
 .bss           0x00000000        0x0 c:/program files (x86)/cypress/psoc creator/4.4/psoc creator/import/gnu/arm/5.4.1/bin/../lib/gcc/arm-none-eabi/5.4.1/../../../../arm-none-eabi/lib/armv6-m\libnosys.a(read.o)

Memory Configuration

Name             Origin             Length             Attributes
rom              0x00000000         0x00020000         xr
ram              0x20000000         0x00004000         xrw
*default*        0x00000000         0xffffffff

Linker script and memory map

LOAD c:/program files (x86)/cypress/psoc creator/4.4/psoc creator/import/gnu/arm/5.4.1/bin/../lib/gcc/arm-none-eabi/5.4.1/armv6-m/crti.o
LOAD c:/program files (x86)/cypress/psoc creator/4.4/psoc creator/import/gnu/arm/5.4.1/bin/../lib/gcc/arm-none-eabi/5.4.1/armv6-m/crtbegin.o
LOAD c:/program files (x86)/cypress/psoc creator/4.4/psoc creator/import/gnu/arm/5.4.1/bin/../lib/gcc/arm-none-eabi/5.4.1/../../../../arm-none-eabi/lib/armv6-m/crt0.o
START GROUP
LOAD .\CortexM0\ARM_GCC_541\Debug\main.o
LOAD .\CortexM0\ARM_GCC_541\Debug\cyfitter_cfg.o
LOAD .\CortexM0\ARM_GCC_541\Debug\cymetadata.o
LOAD .\CortexM0\ARM_GCC_541\Debug\Cm0Start.o
LOAD .\CortexM0\ARM_GCC_541\Debug\BLDC Motor.a
END GROUP
START GROUP
LOAD c:/program files (x86)/cypress/psoc creator/4.4/psoc creator/import/gnu/arm/5.4.1/bin/../lib/gcc/arm-none-eabi/5.4.1/armv6-m\libgcc.a
LOAD c:/program files (x86)/cypress/psoc creator/4.4/psoc creator/import/gnu/arm/5.4.1/bin/../lib/gcc/arm-none-eabi/5.4.1/../../../../arm-none-eabi/lib/armv6-m\libg_nano.a
LOAD c:/program files (x86)/cypress/psoc creator/4.4/psoc creator/import/gnu/arm/5.4.1/bin/../lib/gcc/arm-none-eabi/5.4.1/../../../../arm-none-eabi/lib/armv6-m\libc_nano.a
END GROUP
START GROUP
LOAD c:/program files (x86)/cypress/psoc creator/4.4/psoc creator/import/gnu/arm/5.4.1/bin/../lib/gcc/arm-none-eabi/5.4.1/armv6-m\libgcc.a
LOAD c:/program files (x86)/cypress/psoc creator/4.4/psoc creator/import/gnu/arm/5.4.1/bin/../lib/gcc/arm-none-eabi/5.4.1/../../../../arm-none-eabi/lib/armv6-m\libc_nano.a
END GROUP
LOAD c:/program files (x86)/cypress/psoc creator/4.4/psoc creator/import/gnu/arm/5.4.1/bin/../lib/gcc/arm-none-eabi/5.4.1/armv6-m/crtend.o
LOAD c:/program files (x86)/cypress/psoc creator/4.4/psoc creator/import/gnu/arm/5.4.1/bin/../lib/gcc/arm-none-eabi/5.4.1/armv6-m/crtn.o
START GROUP
LOAD c:/program files (x86)/cypress/psoc creator/4.4/psoc creator/import/gnu/arm/5.4.1/bin/../lib/gcc/arm-none-eabi/5.4.1/armv6-m\libgcc.a
LOAD c:/program files (x86)/cypress/psoc creator/4.4/psoc creator/import/gnu/arm/5.4.1/bin/../lib/gcc/arm-none-eabi/5.4.1/../../../../arm-none-eabi/lib/armv6-m\libc.a
LOAD c:/program files (x86)/cypress/psoc creator/4.4/psoc creator/import/gnu/arm/5.4.1/bin/../lib/gcc/arm-none-eabi/5.4.1/../../../../arm-none-eabi/lib/armv6-m\libnosys.a
END GROUP
                0x00000000                CY_APPL_ORIGIN = 0x0
                0x00000080                CY_FLASH_ROW_SIZE = 0x80
                0x00000001                CY_APPL_NUM = 0x1
                0x00000001                CY_APPL_MAX = 0x1
                0x00000040                CY_METADATA_SIZE = 0x40
                0x00000000                CY_APPL_LOADABLE = 0x0
                0x00000000                CY_CHECKSUM_EXCLUDE_SIZE = ALIGN (0x0, CY_FLASH_ROW_SIZE)
                0x00000000                CY_APP_FOR_STACK_AND_COPIER = 0x0
                [!provide]                PROVIDE (__cy_heap_start, _end)
                0x00000001                PROVIDE (__cy_region_num, ((__cy_regions_end - __cy_regions) / 0x10))
                0x20004000                PROVIDE (__cy_stack, (ORIGIN (ram) + LENGTH (ram)))
                [!provide]                PROVIDE (__cy_heap_end, (__cy_stack - 0x800))

.cybootloader   0x00000000        0x0
 *(.cybootloader)
                0x00000000                appl1_start = CY_APPL_ORIGIN?CY_APPL_ORIGIN:ALIGN (CY_FLASH_ROW_SIZE)
                0x0000ff80                appl2_start = (appl1_start + ALIGN ((((LENGTH (rom) - appl1_start) - (0x2 * CY_FLASH_ROW_SIZE)) / 0x2), CY_FLASH_ROW_SIZE))
                0x00000000                appl_start = (CY_APPL_NUM == 0x1)?appl1_start:appl2_start
                0x00000001                cy_project_type_bootloader = (appl_start == 0x0)?0x1:0x0
                0x00000000                cy_project_type_app_for_stack_and_copier = (CY_APP_FOR_STACK_AND_COPIER == 0x1)?0x1:0x0

.text           0x00000000     0x79c4
 CREATE_OBJECT_SYMBOLS
                0x00000000                PROVIDE (__cy_interrupt_vector, RomVectors)
 *(.romvectors)
 .romvectors    0x00000000       0x10 .\CortexM0\ARM_GCC_541\Debug\Cm0Start.o
                0x00000000                RomVectors
                0x00000001                ASSERT ((. != __cy_interrupt_vector), No interrupt vector)
                0x00000001                ASSERT (CY_APPL_ORIGIN?(SIZEOF (.cybootloader) <= CY_APPL_ORIGIN):0x1, Wrong image location)
                0x00000010                PROVIDE (__cy_reset, Reset)
 *(.text.Reset)
 .text.Reset    0x00000010        0x8 .\CortexM0\ARM_GCC_541\Debug\Cm0Start.o
                0x00000010                Reset
                0x00000001                ASSERT ((. != __cy_reset), No reset code)
 *(.psocinit)
 .psocinit      0x00000018      0x244 .\CortexM0\ARM_GCC_541\Debug\cyfitter_cfg.o
                0x00000100                cyfitter_cfg
                0x0000025c                . = MAX (., 0x100)
 *(.text .text.* .gnu.linkonce.t.*)
 .text          0x0000025c       0x60 c:/program files (x86)/cypress/psoc creator/4.4/psoc creator/import/gnu/arm/5.4.1/bin/../lib/gcc/arm-none-eabi/5.4.1/armv6-m/crtbegin.o
 .text.isr_millis_Handler
                0x000002bc       0x20 .\CortexM0\ARM_GCC_541\Debug\main.o
                0x000002bc                isr_millis_Handler
 .text.hallinthandle
                0x000002dc       0x2c .\CortexM0\ARM_GCC_541\Debug\main.o
                0x000002dc                hallinthandle
 .text.isr_ur_Handler
                0x00000308        0xc .\CortexM0\ARM_GCC_541\Debug\main.o
                0x00000308                isr_ur_Handler
 .text.isr_vr_Handler
                0x00000314        0xc .\CortexM0\ARM_GCC_541\Debug\main.o
                0x00000314                isr_vr_Handler
 .text.isr_wr_Handler
                0x00000320        0xc .\CortexM0\ARM_GCC_541\Debug\main.o
                0x00000320                isr_wr_Handler
 .text.isr_uf_Handler
                0x0000032c        0xc .\CortexM0\ARM_GCC_541\Debug\main.o
                0x0000032c                isr_uf_Handler
 .text.isr_vf_Handler
                0x00000338        0xc .\CortexM0\ARM_GCC_541\Debug\main.o
                0x00000338                isr_vf_Handler
 .text.isr_wf_Handler
                0x00000344        0xc .\CortexM0\ARM_GCC_541\Debug\main.o
                0x00000344                isr_wf_Handler
 .text.inhA     0x00000350        0xc .\CortexM0\ARM_GCC_541\Debug\main.o
                0x00000350                inhA
 .text.inhB     0x0000035c        0xc .\CortexM0\ARM_GCC_541\Debug\main.o
                0x0000035c                inhB
 .text.inhC     0x00000368        0xc .\CortexM0\ARM_GCC_541\Debug\main.o
                0x00000368                inhC
 .text.activeA  0x00000374        0xc .\CortexM0\ARM_GCC_541\Debug\main.o
                0x00000374                activeA
 .text.activeB  0x00000380        0xc .\CortexM0\ARM_GCC_541\Debug\main.o
                0x00000380                activeB
 .text.activeC  0x0000038c        0xc .\CortexM0\ARM_GCC_541\Debug\main.o
                0x0000038c                activeC
 .text.BLDC_4_00_init
                0x00000398       0xe0 .\CortexM0\ARM_GCC_541\Debug\main.o
                0x00000398                BLDC_4_00_init
 .text.setspeedA
                0x00000478       0x40 .\CortexM0\ARM_GCC_541\Debug\main.o
                0x00000478                setspeedA
 .text.setspeedB
                0x000004b8       0x40 .\CortexM0\ARM_GCC_541\Debug\main.o
                0x000004b8                setspeedB
 .text.setspeedC
                0x000004f8       0x40 .\CortexM0\ARM_GCC_541\Debug\main.o
                0x000004f8                setspeedC
 .text.startmotorA
                0x00000538       0x18 .\CortexM0\ARM_GCC_541\Debug\main.o
                0x00000538                startmotorA
 .text.startmotorB
                0x00000550       0x18 .\CortexM0\ARM_GCC_541\Debug\main.o
                0x00000550                startmotorB
 .text.startmotorC
                0x00000568       0x18 .\CortexM0\ARM_GCC_541\Debug\main.o
                0x00000568                startmotorC
 .text.startmotor
                0x00000580       0x5c .\CortexM0\ARM_GCC_541\Debug\main.o
                0x00000580                startmotor
 .text.brake    0x000005dc       0x18 .\CortexM0\ARM_GCC_541\Debug\main.o
                0x000005dc                brake
 .text.commute_trapz
                0x000005f4      0x184 .\CortexM0\ARM_GCC_541\Debug\main.o
                0x000005f4                commute_trapz
 .text.isinttrig
                0x00000778        0x4 .\CortexM0\ARM_GCC_541\Debug\main.o
                0x00000778                isinttrig
 .text.clrint   0x0000077c        0x8 .\CortexM0\ARM_GCC_541\Debug\main.o
                0x0000077c                clrint
 .text.getstate
                0x00000784       0x1c .\CortexM0\ARM_GCC_541\Debug\main.o
                0x00000784                getstate
 .text.nextstate
                0x000007a0       0x10 .\CortexM0\ARM_GCC_541\Debug\main.o
                0x000007a0                nextstate
 .text.del_btn_int
                0x000007b0        0xc .\CortexM0\ARM_GCC_541\Debug\main.o
                0x000007b0                del_btn_int
 .text.PIDcntrl_init
                0x000007bc       0x40 .\CortexM0\ARM_GCC_541\Debug\main.o
                0x000007bc                PIDcntrl_init
 .text.evalCntrl
                0x000007fc      0x110 .\CortexM0\ARM_GCC_541\Debug\main.o
                0x000007fc                evalCntrl
 .text.reset    0x0000090c        0xc .\CortexM0\ARM_GCC_541\Debug\main.o
                0x0000090c                reset
 .text._write   0x00000918       0x1c .\CortexM0\ARM_GCC_541\Debug\main.o
                0x00000918                _write
 .text.parseInp
                0x00000934       0x64 .\CortexM0\ARM_GCC_541\Debug\main.o
                0x00000934                parseInp
 .text.main     0x00000998      0x6f4 .\CortexM0\ARM_GCC_541\Debug\main.o
                0x00000998                main
 .text.cfg_write_bytes32
                0x0000108c       0x34 .\CortexM0\ARM_GCC_541\Debug\cyfitter_cfg.o
 .text.AnalogSetDefault
                0x000010c0       0x20 .\CortexM0\ARM_GCC_541\Debug\cyfitter_cfg.o
 .text.CYMEMZERO
                0x000010e0        0xc .\CortexM0\ARM_GCC_541\Debug\cyfitter_cfg.o
 .text.IntDefaultHandler
                0x000010ec       0x10 .\CortexM0\ARM_GCC_541\Debug\Cm0Start.o
                0x000010ec                IntDefaultHandler
 .text._sbrk    0x000010fc       0x34 .\CortexM0\ARM_GCC_541\Debug\Cm0Start.o
                0x000010fc                _sbrk
 .text.Start_c  0x00001130       0x48 .\CortexM0\ARM_GCC_541\Debug\Cm0Start.o
                0x00001130                Start_c
 .text.initialize_psoc
                0x00001178       0x4c .\CortexM0\ARM_GCC_541\Debug\Cm0Start.o
                0x00001178                initialize_psoc
 .text.INHA_Write
                0x000011c4       0x18 .\CortexM0\ARM_GCC_541\Debug\BLDC Motor.a(INHA.o)
                0x000011c4                INHA_Write
 .text.INHB_Write
                0x000011dc       0x18 .\CortexM0\ARM_GCC_541\Debug\BLDC Motor.a(INHB.o)
                0x000011dc                INHB_Write
 .text.INHC_Write
                0x000011f4       0x18 .\CortexM0\ARM_GCC_541\Debug\BLDC Motor.a(INHC.o)
                0x000011f4                INHC_Write
 .text.CySysClkImoDisableWcoLock
                0x0000120c       0x54 .\CortexM0\ARM_GCC_541\Debug\BLDC Motor.a(CyLib.o)
                0x0000120c                CySysClkImoDisableWcoLock
 .text.CySysClkImoGetWcoLock
                0x00001260       0x14 .\CortexM0\ARM_GCC_541\Debug\BLDC Motor.a(CyLib.o)
                0x00001260                CySysClkImoGetWcoLock
 .text.CyIntEnable
                0x00001274       0x14 .\CortexM0\ARM_GCC_541\Debug\BLDC Motor.a(CyLib.o)
                0x00001274                CyIntEnable
 .text.CyHalt   0x00001288        0x4 .\CortexM0\ARM_GCC_541\Debug\BLDC Motor.a(CyLib.o)
                0x00001288                CyHalt
 .text.CyIntSetVector
                0x0000128c       0x24 .\CortexM0\ARM_GCC_541\Debug\BLDC Motor.a(CyLib.o)
                0x0000128c                CyIntSetVector
 .text.CyDelay  0x000012b0       0x30 .\CortexM0\ARM_GCC_541\Debug\BLDC Motor.a(CyLib.o)
                0x000012b0                CyDelay
 .text.CySysClkImoEnableWcoLock
                0x000012e0       0xf4 .\CortexM0\ARM_GCC_541\Debug\BLDC Motor.a(CyLib.o)
                0x000012e0                CySysClkImoEnableWcoLock
 .text.CySysClkWriteImoFreq
                0x000013d4       0x80 .\CortexM0\ARM_GCC_541\Debug\BLDC Motor.a(CyLib.o)
                0x000013d4                CySysClkWriteImoFreq
 .text.CySysWdtLocked
                0x00001454       0x14 .\CortexM0\ARM_GCC_541\Debug\BLDC Motor.a(CyLFClk.o)
 .text.CySysClkWcoEnabled
                0x00001468       0x14 .\CortexM0\ARM_GCC_541\Debug\BLDC Motor.a(CyLFClk.o)
                0x00001468                CySysClkWcoEnabled
 .text.CySysWdtLock
                0x0000147c       0x1c .\CortexM0\ARM_GCC_541\Debug\BLDC Motor.a(CyLFClk.o)
                0x0000147c                CySysWdtLock
 .text.CySysWdtUnlock
                0x00001498       0x30 .\CortexM0\ARM_GCC_541\Debug\BLDC Motor.a(CyLFClk.o)
                0x00001498                CySysWdtUnlock
 .text.CySysWdtClearInterrupt
                0x000014c8       0x4c .\CortexM0\ARM_GCC_541\Debug\BLDC Motor.a(CyLFClk.o)
                0x000014c8                CySysWdtClearInterrupt
 .text.CySysWdtIsr
                0x00001514       0xa4 .\CortexM0\ARM_GCC_541\Debug\BLDC Motor.a(CyLFClk.o)
                0x00001514                CySysWdtIsr
 .text.PWM_A_WriteCounter
                0x000015b8       0x10 .\CortexM0\ARM_GCC_541\Debug\BLDC Motor.a(PWM_A.o)
                0x000015b8                PWM_A_WriteCounter
 .text.PWM_A_WritePeriod
                0x000015c8       0x10 .\CortexM0\ARM_GCC_541\Debug\BLDC Motor.a(PWM_A.o)
                0x000015c8                PWM_A_WritePeriod
 .text.PWM_A_ReadPeriod
                0x000015d8       0x10 .\CortexM0\ARM_GCC_541\Debug\BLDC Motor.a(PWM_A.o)
                0x000015d8                PWM_A_ReadPeriod
 .text.PWM_A_WriteCompare
                0x000015e8       0x10 .\CortexM0\ARM_GCC_541\Debug\BLDC Motor.a(PWM_A.o)
                0x000015e8                PWM_A_WriteCompare
 .text.PWM_A_TriggerCommand
                0x000015f8       0x1c .\CortexM0\ARM_GCC_541\Debug\BLDC Motor.a(PWM_A.o)
                0x000015f8                PWM_A_TriggerCommand
 .text.PWM_A_Enable
                0x00001614       0x24 .\CortexM0\ARM_GCC_541\Debug\BLDC Motor.a(PWM_A.o)
                0x00001614                PWM_A_Enable
 .text.PWM_A_SetInterruptMode
                0x00001638        0xc .\CortexM0\ARM_GCC_541\Debug\BLDC Motor.a(PWM_A.o)
                0x00001638                PWM_A_SetInterruptMode
 .text.PWM_A_Init
                0x00001644       0x4c .\CortexM0\ARM_GCC_541\Debug\BLDC Motor.a(PWM_A.o)
                0x00001644                PWM_A_Init
 .text.PWM_A_Start
                0x00001690       0x20 .\CortexM0\ARM_GCC_541\Debug\BLDC Motor.a(PWM_A.o)
                0x00001690                PWM_A_Start
 .text.PWM_B_WriteCounter
                0x000016b0       0x10 .\CortexM0\ARM_GCC_541\Debug\BLDC Motor.a(PWM_B.o)
                0x000016b0                PWM_B_WriteCounter
 .text.PWM_B_WritePeriod
                0x000016c0       0x10 .\CortexM0\ARM_GCC_541\Debug\BLDC Motor.a(PWM_B.o)
                0x000016c0                PWM_B_WritePeriod
 .text.PWM_B_ReadPeriod
                0x000016d0       0x10 .\CortexM0\ARM_GCC_541\Debug\BLDC Motor.a(PWM_B.o)
                0x000016d0                PWM_B_ReadPeriod
 .text.PWM_B_WriteCompare
                0x000016e0       0x10 .\CortexM0\ARM_GCC_541\Debug\BLDC Motor.a(PWM_B.o)
                0x000016e0                PWM_B_WriteCompare
 .text.PWM_B_TriggerCommand
                0x000016f0       0x1c .\CortexM0\ARM_GCC_541\Debug\BLDC Motor.a(PWM_B.o)
                0x000016f0                PWM_B_TriggerCommand
 .text.PWM_B_Enable
                0x0000170c       0x24 .\CortexM0\ARM_GCC_541\Debug\BLDC Motor.a(PWM_B.o)
                0x0000170c                PWM_B_Enable
 .text.PWM_B_SetInterruptMode
                0x00001730        0xc .\CortexM0\ARM_GCC_541\Debug\BLDC Motor.a(PWM_B.o)
                0x00001730                PWM_B_SetInterruptMode
 .text.PWM_B_Init
                0x0000173c       0x48 .\CortexM0\ARM_GCC_541\Debug\BLDC Motor.a(PWM_B.o)
                0x0000173c                PWM_B_Init
 .text.PWM_B_Start
                0x00001784       0x20 .\CortexM0\ARM_GCC_541\Debug\BLDC Motor.a(PWM_B.o)
                0x00001784                PWM_B_Start
 .text.PWM_C_WriteCounter
                0x000017a4       0x10 .\CortexM0\ARM_GCC_541\Debug\BLDC Motor.a(PWM_C.o)
                0x000017a4                PWM_C_WriteCounter
 .text.PWM_C_WritePeriod
                0x000017b4       0x10 .\CortexM0\ARM_GCC_541\Debug\BLDC Motor.a(PWM_C.o)
                0x000017b4                PWM_C_WritePeriod
 .text.PWM_C_ReadPeriod
                0x000017c4       0x10 .\CortexM0\ARM_GCC_541\Debug\BLDC Motor.a(PWM_C.o)
                0x000017c4                PWM_C_ReadPeriod
 .text.PWM_C_WriteCompare
                0x000017d4       0x10 .\CortexM0\ARM_GCC_541\Debug\BLDC Motor.a(PWM_C.o)
                0x000017d4                PWM_C_WriteCompare
 .text.PWM_C_TriggerCommand
                0x000017e4       0x1c .\CortexM0\ARM_GCC_541\Debug\BLDC Motor.a(PWM_C.o)
                0x000017e4                PWM_C_TriggerCommand
 .text.PWM_C_Enable
                0x00001800       0x24 .\CortexM0\ARM_GCC_541\Debug\BLDC Motor.a(PWM_C.o)
                0x00001800                PWM_C_Enable
 .text.PWM_C_SetInterruptMode
                0x00001824        0xc .\CortexM0\ARM_GCC_541\Debug\BLDC Motor.a(PWM_C.o)
                0x00001824                PWM_C_SetInterruptMode
 .text.PWM_C_Init
                0x00001830       0x4c .\CortexM0\ARM_GCC_541\Debug\BLDC Motor.a(PWM_C.o)
                0x00001830                PWM_C_Init
 .text.PWM_C_Start
                0x0000187c       0x20 .\CortexM0\ARM_GCC_541\Debug\BLDC Motor.a(PWM_C.o)
                0x0000187c                PWM_C_Start
 .text.u_Read   0x0000189c       0x10 .\CortexM0\ARM_GCC_541\Debug\BLDC Motor.a(u.o)
                0x0000189c                u_Read
 .text.u_ClearInterrupt
                0x000018ac       0x14 .\CortexM0\ARM_GCC_541\Debug\BLDC Motor.a(u.o)
                0x000018ac                u_ClearInterrupt
 .text.v_Read   0x000018c0       0x10 .\CortexM0\ARM_GCC_541\Debug\BLDC Motor.a(v.o)
                0x000018c0                v_Read
 .text.v_ClearInterrupt
                0x000018d0       0x14 .\CortexM0\ARM_GCC_541\Debug\BLDC Motor.a(v.o)
                0x000018d0                v_ClearInterrupt
 .text.w_Read   0x000018e4       0x10 .\CortexM0\ARM_GCC_541\Debug\BLDC Motor.a(w.o)
                0x000018e4                w_Read
 .text.w_ClearInterrupt
                0x000018f4       0x10 .\CortexM0\ARM_GCC_541\Debug\BLDC Motor.a(w.o)
                0x000018f4                w_ClearInterrupt
 .text.UART_ScbModePostEnable
                0x00001904        0x8 .\CortexM0\ARM_GCC_541\Debug\BLDC Motor.a(UART.o)
 .text.UART_Init
                0x0000190c        0x8 .\CortexM0\ARM_GCC_541\Debug\BLDC Motor.a(UART.o)
                0x0000190c                UART_Init
 .text.UART_Enable
                0x00001914       0x18 .\CortexM0\ARM_GCC_541\Debug\BLDC Motor.a(UART.o)
                0x00001914                UART_Enable
 .text.UART_Start
                0x0000192c       0x20 .\CortexM0\ARM_GCC_541\Debug\BLDC Motor.a(UART.o)
                0x0000192c                UART_Start
 .text.UART_SpiUartReadRxData
                0x0000194c        0xc .\CortexM0\ARM_GCC_541\Debug\BLDC Motor.a(UART_SPI_UART.o)
                0x0000194c                UART_SpiUartReadRxData
 .text.UART_SpiUartGetRxBufferSize
                0x00001958       0x10 .\CortexM0\ARM_GCC_541\Debug\BLDC Motor.a(UART_SPI_UART.o)
                0x00001958                UART_SpiUartGetRxBufferSize
 .text.UART_SpiUartWriteTxData
                0x00001968       0x1c .\CortexM0\ARM_GCC_541\Debug\BLDC Motor.a(UART_SPI_UART.o)
                0x00001968                UART_SpiUartWriteTxData
 .text.UART_UartInit
                0x00001984       0xa8 .\CortexM0\ARM_GCC_541\Debug\BLDC Motor.a(UART_UART.o)
                0x00001984                UART_UartInit
 .text.UART_UartPostEnable
                0x00001a2c       0x24 .\CortexM0\ARM_GCC_541\Debug\BLDC Motor.a(UART_UART.o)
                0x00001a2c                UART_UartPostEnable
 .text.UART_UartGetChar
                0x00001a50       0x2c .\CortexM0\ARM_GCC_541\Debug\BLDC Motor.a(UART_UART.o)
                0x00001a50                UART_UartGetChar
 .text.CTRL_Write
                0x00001a7c       0x18 .\CortexM0\ARM_GCC_541\Debug\BLDC Motor.a(CTRL.o)
                0x00001a7c                CTRL_Write
 .text.Counter_micros_Enable
                0x00001a94       0x14 .\CortexM0\ARM_GCC_541\Debug\BLDC Motor.a(Counter_micros.o)
                0x00001a94                Counter_micros_Enable
 .text.Counter_micros_SetInterruptMode
                0x00001aa8        0xc .\CortexM0\ARM_GCC_541\Debug\BLDC Motor.a(Counter_micros.o)
                0x00001aa8                Counter_micros_SetInterruptMode
 .text.Counter_micros_ReadStatusRegister
                0x00001ab4        0xc .\CortexM0\ARM_GCC_541\Debug\BLDC Motor.a(Counter_micros.o)
                0x00001ab4                Counter_micros_ReadStatusRegister
 .text.Counter_micros_WriteCounter
                0x00001ac0        0xc .\CortexM0\ARM_GCC_541\Debug\BLDC Motor.a(Counter_micros.o)
                0x00001ac0                Counter_micros_WriteCounter
 .text.Counter_micros_ReadCounter
                0x00001acc       0x14 .\CortexM0\ARM_GCC_541\Debug\BLDC Motor.a(Counter_micros.o)
                0x00001acc                Counter_micros_ReadCounter
 .text.Counter_micros_ReadCapture
                0x00001ae0        0xc .\CortexM0\ARM_GCC_541\Debug\BLDC Motor.a(Counter_micros.o)
                0x00001ae0                Counter_micros_ReadCapture
 .text.Counter_micros_WritePeriod
                0x00001aec        0xc .\CortexM0\ARM_GCC_541\Debug\BLDC Motor.a(Counter_micros.o)
                0x00001aec                Counter_micros_WritePeriod
 .text.Counter_micros_WriteCompare
                0x00001af8        0xc .\CortexM0\ARM_GCC_541\Debug\BLDC Motor.a(Counter_micros.o)
                0x00001af8                Counter_micros_WriteCompare
 .text.Counter_micros_ReadCompare
                0x00001b04        0xc .\CortexM0\ARM_GCC_541\Debug\BLDC Motor.a(Counter_micros.o)
                0x00001b04                Counter_micros_ReadCompare
 .text.Counter_micros_ClearFIFO
                0x00001b10       0x14 .\CortexM0\ARM_GCC_541\Debug\BLDC Motor.a(Counter_micros.o)
                0x00001b10                Counter_micros_ClearFIFO
 .text.Counter_micros_Init
                0x00001b24       0x58 .\CortexM0\ARM_GCC_541\Debug\BLDC Motor.a(Counter_micros.o)
                0x00001b24                Counter_micros_Init
 .text.Counter_micros_Start
                0x00001b7c       0x20 .\CortexM0\ARM_GCC_541\Debug\BLDC Motor.a(Counter_micros.o)
                0x00001b7c                Counter_micros_Start
 .text.isr_millis_SetVector
                0x00001b9c        0xc .\CortexM0\ARM_GCC_541\Debug\BLDC Motor.a(isr_millis.o)
                0x00001b9c                isr_millis_SetVector
 .text.isr_millis_SetPriority
                0x00001ba8       0x20 .\CortexM0\ARM_GCC_541\Debug\BLDC Motor.a(isr_millis.o)
                0x00001ba8                isr_millis_SetPriority
 .text.isr_millis_Enable
                0x00001bc8        0xc .\CortexM0\ARM_GCC_541\Debug\BLDC Motor.a(isr_millis.o)
                0x00001bc8                isr_millis_Enable
 .text.isr_millis_Disable
                0x00001bd4        0xc .\CortexM0\ARM_GCC_541\Debug\BLDC Motor.a(isr_millis.o)
                0x00001bd4                isr_millis_Disable
 .text.isr_millis_StartEx
                0x00001be0       0x1c .\CortexM0\ARM_GCC_541\Debug\BLDC Motor.a(isr_millis.o)
                0x00001be0                isr_millis_StartEx
 .text.isr_uf_SetVector
                0x00001bfc        0xc .\CortexM0\ARM_GCC_541\Debug\BLDC Motor.a(isr_uf.o)
                0x00001bfc                isr_uf_SetVector
 .text.isr_uf_SetPriority
                0x00001c08       0x24 .\CortexM0\ARM_GCC_541\Debug\BLDC Motor.a(isr_uf.o)
                0x00001c08                isr_uf_SetPriority
 .text.isr_uf_Enable
                0x00001c2c        0xc .\CortexM0\ARM_GCC_541\Debug\BLDC Motor.a(isr_uf.o)
                0x00001c2c                isr_uf_Enable
 .text.isr_uf_Disable
                0x00001c38        0xc .\CortexM0\ARM_GCC_541\Debug\BLDC Motor.a(isr_uf.o)
                0x00001c38                isr_uf_Disable
 .text.isr_uf_StartEx
                0x00001c44       0x1c .\CortexM0\ARM_GCC_541\Debug\BLDC Motor.a(isr_uf.o)
                0x00001c44                isr_uf_StartEx
 .text.isr_vf_SetVector
                0x00001c60        0xc .\CortexM0\ARM_GCC_541\Debug\BLDC Motor.a(isr_vf.o)
                0x00001c60                isr_vf_SetVector
 .text.isr_vf_SetPriority
                0x00001c6c       0x20 .\CortexM0\ARM_GCC_541\Debug\BLDC Motor.a(isr_vf.o)
                0x00001c6c                isr_vf_SetPriority
 .text.isr_vf_Enable
                0x00001c8c        0xc .\CortexM0\ARM_GCC_541\Debug\BLDC Motor.a(isr_vf.o)
                0x00001c8c                isr_vf_Enable
 .text.isr_vf_Disable
                0x00001c98        0xc .\CortexM0\ARM_GCC_541\Debug\BLDC Motor.a(isr_vf.o)
                0x00001c98                isr_vf_Disable
 .text.isr_vf_StartEx
                0x00001ca4       0x1c .\CortexM0\ARM_GCC_541\Debug\BLDC Motor.a(isr_vf.o)
                0x00001ca4                isr_vf_StartEx
 .text.isr_wf_SetVector
                0x00001cc0        0xc .\CortexM0\ARM_GCC_541\Debug\BLDC Motor.a(isr_wf.o)
                0x00001cc0                isr_wf_SetVector
 .text.isr_wf_SetPriority
                0x00001ccc       0x24 .\CortexM0\ARM_GCC_541\Debug\BLDC Motor.a(isr_wf.o)
                0x00001ccc                isr_wf_SetPriority
 .text.isr_wf_Enable
                0x00001cf0        0xc .\CortexM0\ARM_GCC_541\Debug\BLDC Motor.a(isr_wf.o)
                0x00001cf0                isr_wf_Enable
 .text.isr_wf_Disable
                0x00001cfc        0xc .\CortexM0\ARM_GCC_541\Debug\BLDC Motor.a(isr_wf.o)
                0x00001cfc                isr_wf_Disable
 .text.isr_wf_StartEx
                0x00001d08       0x1c .\CortexM0\ARM_GCC_541\Debug\BLDC Motor.a(isr_wf.o)
                0x00001d08                isr_wf_StartEx
 .text.isr_wr_SetVector
                0x00001d24        0xc .\CortexM0\ARM_GCC_541\Debug\BLDC Motor.a(isr_wr.o)
                0x00001d24                isr_wr_SetVector
 .text.isr_wr_SetPriority
                0x00001d30       0x24 .\CortexM0\ARM_GCC_541\Debug\BLDC Motor.a(isr_wr.o)
                0x00001d30                isr_wr_SetPriority
 .text.isr_wr_Enable
                0x00001d54        0xc .\CortexM0\ARM_GCC_541\Debug\BLDC Motor.a(isr_wr.o)
                0x00001d54                isr_wr_Enable
 .text.isr_wr_Disable
                0x00001d60        0xc .\CortexM0\ARM_GCC_541\Debug\BLDC Motor.a(isr_wr.o)
                0x00001d60                isr_wr_Disable
 .text.isr_wr_StartEx
                0x00001d6c       0x1c .\CortexM0\ARM_GCC_541\Debug\BLDC Motor.a(isr_wr.o)
                0x00001d6c                isr_wr_StartEx
 .text.isr_vr_SetVector
                0x00001d88        0xc .\CortexM0\ARM_GCC_541\Debug\BLDC Motor.a(isr_vr.o)
                0x00001d88                isr_vr_SetVector
 .text.isr_vr_SetPriority
                0x00001d94       0x20 .\CortexM0\ARM_GCC_541\Debug\BLDC Motor.a(isr_vr.o)
                0x00001d94                isr_vr_SetPriority
 .text.isr_vr_Enable
                0x00001db4        0xc .\CortexM0\ARM_GCC_541\Debug\BLDC Motor.a(isr_vr.o)
                0x00001db4                isr_vr_Enable
 .text.isr_vr_Disable
                0x00001dc0        0xc .\CortexM0\ARM_GCC_541\Debug\BLDC Motor.a(isr_vr.o)
                0x00001dc0                isr_vr_Disable
 .text.isr_vr_StartEx
                0x00001dcc       0x1c .\CortexM0\ARM_GCC_541\Debug\BLDC Motor.a(isr_vr.o)
                0x00001dcc                isr_vr_StartEx
 .text.isr_ur_SetVector
                0x00001de8        0xc .\CortexM0\ARM_GCC_541\Debug\BLDC Motor.a(isr_ur.o)
                0x00001de8                isr_ur_SetVector
 .text.isr_ur_SetPriority
                0x00001df4       0x24 .\CortexM0\ARM_GCC_541\Debug\BLDC Motor.a(isr_ur.o)
                0x00001df4                isr_ur_SetPriority
 .text.isr_ur_Enable
                0x00001e18        0xc .\CortexM0\ARM_GCC_541\Debug\BLDC Motor.a(isr_ur.o)
                0x00001e18                isr_ur_Enable
 .text.isr_ur_Disable
                0x00001e24        0xc .\CortexM0\ARM_GCC_541\Debug\BLDC Motor.a(isr_ur.o)
                0x00001e24                isr_ur_Disable
 .text.isr_ur_StartEx
                0x00001e30       0x1c .\CortexM0\ARM_GCC_541\Debug\BLDC Motor.a(isr_ur.o)
                0x00001e30                isr_ur_StartEx
 *fill*         0x00001e4c        0x4 
 .text          0x00001e50       0x20 .\CortexM0\ARM_GCC_541\Debug\BLDC Motor.a(CyBootAsmGnu.o)
                0x00001e50                CyDelayCycles
                0x00001e62                CyEnterCriticalSection
                0x00001e6a                CyExitCriticalSection
 .text.CySysFlashSetWaitCycles
                0x00001e70       0x54 .\CortexM0\ARM_GCC_541\Debug\BLDC Motor.a(CyFlash.o)
                0x00001e70                CySysFlashSetWaitCycles
 .text          0x00001ec4      0x114 c:/program files (x86)/cypress/psoc creator/4.4/psoc creator/import/gnu/arm/5.4.1/bin/../lib/gcc/arm-none-eabi/5.4.1/armv6-m\libgcc.a(_udivsi3.o)
                0x00001ec4                __aeabi_uidiv
                0x00001ec4                __udivsi3
                0x00001fd0                __aeabi_uidivmod
 .text          0x00001fd8      0x1d4 c:/program files (x86)/cypress/psoc creator/4.4/psoc creator/import/gnu/arm/5.4.1/bin/../lib/gcc/arm-none-eabi/5.4.1/armv6-m\libgcc.a(_divsi3.o)
                0x00001fd8                __divsi3
                0x00001fd8                __aeabi_idiv
                0x000021a4                __aeabi_idivmod
 .text          0x000021ac        0x4 c:/program files (x86)/cypress/psoc creator/4.4/psoc creator/import/gnu/arm/5.4.1/bin/../lib/gcc/arm-none-eabi/5.4.1/armv6-m\libgcc.a(_dvmd_tls.o)
                0x000021ac                __aeabi_idiv0
                0x000021ac                __aeabi_ldiv0
 .text          0x000021b0       0x7c c:/program files (x86)/cypress/psoc creator/4.4/psoc creator/import/gnu/arm/5.4.1/bin/../lib/gcc/arm-none-eabi/5.4.1/armv6-m\libgcc.a(_arm_cmpdf2.o)
                0x000021b0                __aeabi_cdrcmple
                0x000021c0                __aeabi_cdcmple
                0x000021c0                __aeabi_cdcmpeq
                0x000021d0                __aeabi_dcmpeq
                0x000021dc                __aeabi_dcmplt
                0x000021f0                __aeabi_dcmple
                0x00002204                __aeabi_dcmpgt
                0x00002218                __aeabi_dcmpge
 .text          0x0000222c       0x74 c:/program files (x86)/cypress/psoc creator/4.4/psoc creator/import/gnu/arm/5.4.1/bin/../lib/gcc/arm-none-eabi/5.4.1/armv6-m\libgcc.a(_arm_cmpsf2.o)
                0x0000222c                __aeabi_cfrcmple
                0x00002234                __aeabi_cfcmpeq
                0x00002234                __aeabi_cfcmple
                0x00002244                __aeabi_fcmpeq
                0x00002250                __aeabi_fcmplt
                0x00002264                __aeabi_fcmple
                0x00002278                __aeabi_fcmpgt
                0x0000228c                __aeabi_fcmpge
 .text          0x000022a0       0x30 c:/program files (x86)/cypress/psoc creator/4.4/psoc creator/import/gnu/arm/5.4.1/bin/../lib/gcc/arm-none-eabi/5.4.1/armv6-m\libgcc.a(_fixunssfsi.o)
                0x000022a0                __fixunssfsi
                0x000022a0                __aeabi_f2uiz
 .text          0x000022d0       0x3c c:/program files (x86)/cypress/psoc creator/4.4/psoc creator/import/gnu/arm/5.4.1/bin/../lib/gcc/arm-none-eabi/5.4.1/armv6-m\libgcc.a(_fixunsdfsi.o)
                0x000022d0                __aeabi_d2uiz
                0x000022d0                __fixunsdfsi
 .text          0x0000230c      0x2ec c:/program files (x86)/cypress/psoc creator/4.4/psoc creator/import/gnu/arm/5.4.1/bin/../lib/gcc/arm-none-eabi/5.4.1/armv6-m\libgcc.a(addsf3.o)
                0x0000230c                __aeabi_fadd
 .text          0x000025f8      0x234 c:/program files (x86)/cypress/psoc creator/4.4/psoc creator/import/gnu/arm/5.4.1/bin/../lib/gcc/arm-none-eabi/5.4.1/armv6-m\libgcc.a(divsf3.o)
                0x000025f8                __aeabi_fdiv
 .text          0x0000282c       0x50 c:/program files (x86)/cypress/psoc creator/4.4/psoc creator/import/gnu/arm/5.4.1/bin/../lib/gcc/arm-none-eabi/5.4.1/armv6-m\libgcc.a(eqsf2.o)
                0x0000282c                __eqsf2
                0x0000282c                __nesf2
 .text          0x0000287c       0x88 c:/program files (x86)/cypress/psoc creator/4.4/psoc creator/import/gnu/arm/5.4.1/bin/../lib/gcc/arm-none-eabi/5.4.1/armv6-m\libgcc.a(gesf2.o)
                0x0000287c                __gesf2
                0x0000287c                __gtsf2
 .text          0x00002904       0x88 c:/program files (x86)/cypress/psoc creator/4.4/psoc creator/import/gnu/arm/5.4.1/bin/../lib/gcc/arm-none-eabi/5.4.1/armv6-m\libgcc.a(lesf2.o)
                0x00002904                __ltsf2
                0x00002904                __lesf2
 .text          0x0000298c      0x228 c:/program files (x86)/cypress/psoc creator/4.4/psoc creator/import/gnu/arm/5.4.1/bin/../lib/gcc/arm-none-eabi/5.4.1/armv6-m\libgcc.a(mulsf3.o)
                0x0000298c                __aeabi_fmul
 .text          0x00002bb4      0x30c c:/program files (x86)/cypress/psoc creator/4.4/psoc creator/import/gnu/arm/5.4.1/bin/../lib/gcc/arm-none-eabi/5.4.1/armv6-m\libgcc.a(subsf3.o)
                0x00002bb4                __aeabi_fsub
 .text          0x00002ec0       0x44 c:/program files (x86)/cypress/psoc creator/4.4/psoc creator/import/gnu/arm/5.4.1/bin/../lib/gcc/arm-none-eabi/5.4.1/armv6-m\libgcc.a(fixsfsi.o)
                0x00002ec0                __aeabi_f2iz
 .text          0x00002f04       0x90 c:/program files (x86)/cypress/psoc creator/4.4/psoc creator/import/gnu/arm/5.4.1/bin/../lib/gcc/arm-none-eabi/5.4.1/armv6-m\libgcc.a(floatsisf.o)
                0x00002f04                __aeabi_i2f
 .text          0x00002f94       0x7c c:/program files (x86)/cypress/psoc creator/4.4/psoc creator/import/gnu/arm/5.4.1/bin/../lib/gcc/arm-none-eabi/5.4.1/armv6-m\libgcc.a(floatunsisf.o)
                0x00002f94                __aeabi_ui2f
 .text          0x00003010      0x62c c:/program files (x86)/cypress/psoc creator/4.4/psoc creator/import/gnu/arm/5.4.1/bin/../lib/gcc/arm-none-eabi/5.4.1/armv6-m\libgcc.a(divdf3.o)
                0x00003010                __aeabi_ddiv
 .text          0x0000363c       0x80 c:/program files (x86)/cypress/psoc creator/4.4/psoc creator/import/gnu/arm/5.4.1/bin/../lib/gcc/arm-none-eabi/5.4.1/armv6-m\libgcc.a(eqdf2.o)
                0x0000363c                __nedf2
                0x0000363c                __eqdf2
 .text          0x000036bc       0xc8 c:/program files (x86)/cypress/psoc creator/4.4/psoc creator/import/gnu/arm/5.4.1/bin/../lib/gcc/arm-none-eabi/5.4.1/armv6-m\libgcc.a(gedf2.o)
                0x000036bc                __gedf2
                0x000036bc                __gtdf2
 .text          0x00003784       0xd4 c:/program files (x86)/cypress/psoc creator/4.4/psoc creator/import/gnu/arm/5.4.1/bin/../lib/gcc/arm-none-eabi/5.4.1/armv6-m\libgcc.a(ledf2.o)
                0x00003784                __ledf2
                0x00003784                __ltdf2
 .text          0x00003858      0x4f4 c:/program files (x86)/cypress/psoc creator/4.4/psoc creator/import/gnu/arm/5.4.1/bin/../lib/gcc/arm-none-eabi/5.4.1/armv6-m\libgcc.a(muldf3.o)
                0x00003858                __aeabi_dmul
 .text          0x00003d4c      0x6a8 c:/program files (x86)/cypress/psoc creator/4.4/psoc creator/import/gnu/arm/5.4.1/bin/../lib/gcc/arm-none-eabi/5.4.1/armv6-m\libgcc.a(subdf3.o)
                0x00003d4c                __aeabi_dsub
 .text          0x000043f4       0x6c c:/program files (x86)/cypress/psoc creator/4.4/psoc creator/import/gnu/arm/5.4.1/bin/../lib/gcc/arm-none-eabi/5.4.1/armv6-m\libgcc.a(fixdfsi.o)
                0x000043f4                __aeabi_d2iz
 .text          0x00004460       0x70 c:/program files (x86)/cypress/psoc creator/4.4/psoc creator/import/gnu/arm/5.4.1/bin/../lib/gcc/arm-none-eabi/5.4.1/armv6-m\libgcc.a(floatunsidf.o)
                0x00004460                __aeabi_ui2d
 .text          0x000044d0       0xa8 c:/program files (x86)/cypress/psoc creator/4.4/psoc creator/import/gnu/arm/5.4.1/bin/../lib/gcc/arm-none-eabi/5.4.1/armv6-m\libgcc.a(extendsfdf2.o)
                0x000044d0                __aeabi_f2d
 .text          0x00004578      0x118 c:/program files (x86)/cypress/psoc creator/4.4/psoc creator/import/gnu/arm/5.4.1/bin/../lib/gcc/arm-none-eabi/5.4.1/armv6-m\libgcc.a(truncdfsf2.o)
                0x00004578                __aeabi_d2f
 .text          0x00004690       0x3c c:/program files (x86)/cypress/psoc creator/4.4/psoc creator/import/gnu/arm/5.4.1/bin/../lib/gcc/arm-none-eabi/5.4.1/armv6-m\libgcc.a(_clzsi2.o)
                0x00004690                __clzsi2
 .text.atof     0x000046cc        0xa c:/program files (x86)/cypress/psoc creator/4.4/psoc creator/import/gnu/arm/5.4.1/bin/../lib/gcc/arm-none-eabi/5.4.1/../../../../arm-none-eabi/lib/armv6-m\libg_nano.a(lib_a-atof.o)
                0x000046cc                atof
 *fill*         0x000046d6        0x2 
 .text.__errno  0x000046d8        0xc c:/program files (x86)/cypress/psoc creator/4.4/psoc creator/import/gnu/arm/5.4.1/bin/../lib/gcc/arm-none-eabi/5.4.1/../../../../arm-none-eabi/lib/armv6-m\libg_nano.a(lib_a-errno.o)
                0x000046d8                __errno
 .text.__libc_init_array
                0x000046e4       0x4c c:/program files (x86)/cypress/psoc creator/4.4/psoc creator/import/gnu/arm/5.4.1/bin/../lib/gcc/arm-none-eabi/5.4.1/../../../../arm-none-eabi/lib/armv6-m\libg_nano.a(lib_a-init.o)
                0x000046e4                __libc_init_array
 .text.memcpy   0x00004730       0x12 c:/program files (x86)/cypress/psoc creator/4.4/psoc creator/import/gnu/arm/5.4.1/bin/../lib/gcc/arm-none-eabi/5.4.1/../../../../arm-none-eabi/lib/armv6-m\libg_nano.a(lib_a-memcpy-stub.o)
                0x00004730                memcpy
 .text.memset   0x00004742       0x10 c:/program files (x86)/cypress/psoc creator/4.4/psoc creator/import/gnu/arm/5.4.1/bin/../lib/gcc/arm-none-eabi/5.4.1/../../../../arm-none-eabi/lib/armv6-m\libg_nano.a(lib_a-memset.o)
                0x00004742                memset
 *fill*         0x00004752        0x2 
 .text.printf   0x00004754       0x34 c:/program files (x86)/cypress/psoc creator/4.4/psoc creator/import/gnu/arm/5.4.1/bin/../lib/gcc/arm-none-eabi/5.4.1/../../../../arm-none-eabi/lib/armv6-m\libg_nano.a(lib_a-printf.o)
                0x00004754                iprintf
                0x00004754                printf
 .text.putchar  0x00004788       0x28 c:/program files (x86)/cypress/psoc creator/4.4/psoc creator/import/gnu/arm/5.4.1/bin/../lib/gcc/arm-none-eabi/5.4.1/../../../../arm-none-eabi/lib/armv6-m\libg_nano.a(lib_a-putchar.o)
                0x00004788                putchar
 .text._puts_r  0x000047b0       0xc4 c:/program files (x86)/cypress/psoc creator/4.4/psoc creator/import/gnu/arm/5.4.1/bin/../lib/gcc/arm-none-eabi/5.4.1/../../../../arm-none-eabi/lib/armv6-m\libg_nano.a(lib_a-puts.o)
                0x000047b0                _puts_r
 .text.puts     0x00004874       0x14 c:/program files (x86)/cypress/psoc creator/4.4/psoc creator/import/gnu/arm/5.4.1/bin/../lib/gcc/arm-none-eabi/5.4.1/../../../../arm-none-eabi/lib/armv6-m\libg_nano.a(lib_a-puts.o)
                0x00004874                puts
 .text.unlikely.sulp
                0x00004888       0x30 c:/program files (x86)/cypress/psoc creator/4.4/psoc creator/import/gnu/arm/5.4.1/bin/../lib/gcc/arm-none-eabi/5.4.1/../../../../arm-none-eabi/lib/armv6-m\libg_nano.a(lib_a-strtod.o)
 .text._strtod_r
                0x000048b8      0xc60 c:/program files (x86)/cypress/psoc creator/4.4/psoc creator/import/gnu/arm/5.4.1/bin/../lib/gcc/arm-none-eabi/5.4.1/../../../../arm-none-eabi/lib/armv6-m\libg_nano.a(lib_a-strtod.o)
                0x000048b8                _strtod_r
 .text.strtod   0x00005518       0x14 c:/program files (x86)/cypress/psoc creator/4.4/psoc creator/import/gnu/arm/5.4.1/bin/../lib/gcc/arm-none-eabi/5.4.1/../../../../arm-none-eabi/lib/armv6-m\libg_nano.a(lib_a-strtod.o)
                0x00005518                strtod
 .text.__swbuf_r
                0x0000552c       0xb0 c:/program files (x86)/cypress/psoc creator/4.4/psoc creator/import/gnu/arm/5.4.1/bin/../lib/gcc/arm-none-eabi/5.4.1/../../../../arm-none-eabi/lib/armv6-m\libg_nano.a(lib_a-wbuf.o)
                0x0000552c                __swbuf_r
 .text.__swsetup_r
                0x000055dc       0xec c:/program files (x86)/cypress/psoc creator/4.4/psoc creator/import/gnu/arm/5.4.1/bin/../lib/gcc/arm-none-eabi/5.4.1/../../../../arm-none-eabi/lib/armv6-m\libg_nano.a(lib_a-wsetup.o)
                0x000055dc                __swsetup_r
 .text.__sflush_r
                0x000056c8      0x10c c:/program files (x86)/cypress/psoc creator/4.4/psoc creator/import/gnu/arm/5.4.1/bin/../lib/gcc/arm-none-eabi/5.4.1/../../../../arm-none-eabi/lib/armv6-m\libg_nano.a(lib_a-fflush.o)
                0x000056c8                __sflush_r
 .text._fflush_r
                0x000057d4       0x58 c:/program files (x86)/cypress/psoc creator/4.4/psoc creator/import/gnu/arm/5.4.1/bin/../lib/gcc/arm-none-eabi/5.4.1/../../../../arm-none-eabi/lib/armv6-m\libg_nano.a(lib_a-fflush.o)
                0x000057d4                _fflush_r
 .text._cleanup_r
                0x0000582c       0x10 c:/program files (x86)/cypress/psoc creator/4.4/psoc creator/import/gnu/arm/5.4.1/bin/../lib/gcc/arm-none-eabi/5.4.1/../../../../arm-none-eabi/lib/armv6-m\libg_nano.a(lib_a-findfp.o)
                0x0000582c                _cleanup_r
 .text.std.isra.0
                0x0000583c       0x48 c:/program files (x86)/cypress/psoc creator/4.4/psoc creator/import/gnu/arm/5.4.1/bin/../lib/gcc/arm-none-eabi/5.4.1/../../../../arm-none-eabi/lib/armv6-m\libg_nano.a(lib_a-findfp.o)
 .text.__sfmoreglue
                0x00005884       0x2c c:/program files (x86)/cypress/psoc creator/4.4/psoc creator/import/gnu/arm/5.4.1/bin/../lib/gcc/arm-none-eabi/5.4.1/../../../../arm-none-eabi/lib/armv6-m\libg_nano.a(lib_a-findfp.o)
                0x00005884                __sfmoreglue
 .text.__sinit  0x000058b0       0x68 c:/program files (x86)/cypress/psoc creator/4.4/psoc creator/import/gnu/arm/5.4.1/bin/../lib/gcc/arm-none-eabi/5.4.1/../../../../arm-none-eabi/lib/armv6-m\libg_nano.a(lib_a-findfp.o)
                0x000058b0                __sinit
 .text.__sfp    0x00005918       0x7c c:/program files (x86)/cypress/psoc creator/4.4/psoc creator/import/gnu/arm/5.4.1/bin/../lib/gcc/arm-none-eabi/5.4.1/../../../../arm-none-eabi/lib/armv6-m\libg_nano.a(lib_a-findfp.o)
                0x00005918                __sfp
 .text._fwalk_reent
                0x00005994       0x42 c:/program files (x86)/cypress/psoc creator/4.4/psoc creator/import/gnu/arm/5.4.1/bin/../lib/gcc/arm-none-eabi/5.4.1/../../../../arm-none-eabi/lib/armv6-m\libg_nano.a(lib_a-fwalk.o)
                0x00005994                _fwalk_reent
 .text.rshift   0x000059d6       0x68 c:/program files (x86)/cypress/psoc creator/4.4/psoc creator/import/gnu/arm/5.4.1/bin/../lib/gcc/arm-none-eabi/5.4.1/../../../../arm-none-eabi/lib/armv6-m\libg_nano.a(lib_a-gdtoa-gethex.o)
 .text.__hexdig_fun
                0x00005a3e       0x2a c:/program files (x86)/cypress/psoc creator/4.4/psoc creator/import/gnu/arm/5.4.1/bin/../lib/gcc/arm-none-eabi/5.4.1/../../../../arm-none-eabi/lib/armv6-m\libg_nano.a(lib_a-gdtoa-gethex.o)
                0x00005a3e                __hexdig_fun
 .text.__gethex
                0x00005a68      0x454 c:/program files (x86)/cypress/psoc creator/4.4/psoc creator/import/gnu/arm/5.4.1/bin/../lib/gcc/arm-none-eabi/5.4.1/../../../../arm-none-eabi/lib/armv6-m\libg_nano.a(lib_a-gdtoa-gethex.o)
                0x00005a68                __gethex
 .text.L_shift  0x00005ebc       0x24 c:/program files (x86)/cypress/psoc creator/4.4/psoc creator/import/gnu/arm/5.4.1/bin/../lib/gcc/arm-none-eabi/5.4.1/../../../../arm-none-eabi/lib/armv6-m\libg_nano.a(lib_a-gdtoa-hexnan.o)
 .text.__match  0x00005ee0       0x28 c:/program files (x86)/cypress/psoc creator/4.4/psoc creator/import/gnu/arm/5.4.1/bin/../lib/gcc/arm-none-eabi/5.4.1/../../../../arm-none-eabi/lib/armv6-m\libg_nano.a(lib_a-gdtoa-hexnan.o)
                0x00005ee0                __match
 .text.__hexnan
                0x00005f08      0x12e c:/program files (x86)/cypress/psoc creator/4.4/psoc creator/import/gnu/arm/5.4.1/bin/../lib/gcc/arm-none-eabi/5.4.1/../../../../arm-none-eabi/lib/armv6-m\libg_nano.a(lib_a-gdtoa-hexnan.o)
                0x00005f08                __hexnan
 *fill*         0x00006036        0x2 
 .text._localeconv_r
                0x00006038        0x8 c:/program files (x86)/cypress/psoc creator/4.4/psoc creator/import/gnu/arm/5.4.1/bin/../lib/gcc/arm-none-eabi/5.4.1/../../../../arm-none-eabi/lib/armv6-m\libg_nano.a(lib_a-locale.o)
                0x00006038                _localeconv_r
 .text.__swhatbuf_r
                0x00006040       0x4c c:/program files (x86)/cypress/psoc creator/4.4/psoc creator/import/gnu/arm/5.4.1/bin/../lib/gcc/arm-none-eabi/5.4.1/../../../../arm-none-eabi/lib/armv6-m\libg_nano.a(lib_a-makebuf.o)
                0x00006040                __swhatbuf_r
 .text.__smakebuf_r
                0x0000608c       0x7c c:/program files (x86)/cypress/psoc creator/4.4/psoc creator/import/gnu/arm/5.4.1/bin/../lib/gcc/arm-none-eabi/5.4.1/../../../../arm-none-eabi/lib/armv6-m\libg_nano.a(lib_a-makebuf.o)
                0x0000608c                __smakebuf_r
 .text._Balloc  0x00006108       0x70 c:/program files (x86)/cypress/psoc creator/4.4/psoc creator/import/gnu/arm/5.4.1/bin/../lib/gcc/arm-none-eabi/5.4.1/../../../../arm-none-eabi/lib/armv6-m\libg_nano.a(lib_a-mprec.o)
                0x00006108                _Balloc
 .text._Bfree   0x00006178       0x32 c:/program files (x86)/cypress/psoc creator/4.4/psoc creator/import/gnu/arm/5.4.1/bin/../lib/gcc/arm-none-eabi/5.4.1/../../../../arm-none-eabi/lib/armv6-m\libg_nano.a(lib_a-mprec.o)
                0x00006178                _Bfree
 .text.__multadd
                0x000061aa       0x7a c:/program files (x86)/cypress/psoc creator/4.4/psoc creator/import/gnu/arm/5.4.1/bin/../lib/gcc/arm-none-eabi/5.4.1/../../../../arm-none-eabi/lib/armv6-m\libg_nano.a(lib_a-mprec.o)
                0x000061aa                __multadd
 .text.__s2b    0x00006224       0x7c c:/program files (x86)/cypress/psoc creator/4.4/psoc creator/import/gnu/arm/5.4.1/bin/../lib/gcc/arm-none-eabi/5.4.1/../../../../arm-none-eabi/lib/armv6-m\libg_nano.a(lib_a-mprec.o)
                0x00006224                __s2b
 .text.__hi0bits
                0x000062a0       0x36 c:/program files (x86)/cypress/psoc creator/4.4/psoc creator/import/gnu/arm/5.4.1/bin/../lib/gcc/arm-none-eabi/5.4.1/../../../../arm-none-eabi/lib/armv6-m\libg_nano.a(lib_a-mprec.o)
                0x000062a0                __hi0bits
 .text.__lo0bits
                0x000062d6       0x5e c:/program files (x86)/cypress/psoc creator/4.4/psoc creator/import/gnu/arm/5.4.1/bin/../lib/gcc/arm-none-eabi/5.4.1/../../../../arm-none-eabi/lib/armv6-m\libg_nano.a(lib_a-mprec.o)
                0x000062d6                __lo0bits
 .text.__i2b    0x00006334       0x12 c:/program files (x86)/cypress/psoc creator/4.4/psoc creator/import/gnu/arm/5.4.1/bin/../lib/gcc/arm-none-eabi/5.4.1/../../../../arm-none-eabi/lib/armv6-m\libg_nano.a(lib_a-mprec.o)
                0x00006334                __i2b
 .text.__multiply
                0x00006346      0x112 c:/program files (x86)/cypress/psoc creator/4.4/psoc creator/import/gnu/arm/5.4.1/bin/../lib/gcc/arm-none-eabi/5.4.1/../../../../arm-none-eabi/lib/armv6-m\libg_nano.a(lib_a-mprec.o)
                0x00006346                __multiply
 .text.__pow5mult
                0x00006458       0xa8 c:/program files (x86)/cypress/psoc creator/4.4/psoc creator/import/gnu/arm/5.4.1/bin/../lib/gcc/arm-none-eabi/5.4.1/../../../../arm-none-eabi/lib/armv6-m\libg_nano.a(lib_a-mprec.o)
                0x00006458                __pow5mult
 .text.__lshift
                0x00006500       0xa4 c:/program files (x86)/cypress/psoc creator/4.4/psoc creator/import/gnu/arm/5.4.1/bin/../lib/gcc/arm-none-eabi/5.4.1/../../../../arm-none-eabi/lib/armv6-m\libg_nano.a(lib_a-mprec.o)
                0x00006500                __lshift
 .text.__mcmp   0x000065a4       0x36 c:/program files (x86)/cypress/psoc creator/4.4/psoc creator/import/gnu/arm/5.4.1/bin/../lib/gcc/arm-none-eabi/5.4.1/../../../../arm-none-eabi/lib/armv6-m\libg_nano.a(lib_a-mprec.o)
                0x000065a4                __mcmp
 .text.__mdiff  0x000065da       0xd6 c:/program files (x86)/cypress/psoc creator/4.4/psoc creator/import/gnu/arm/5.4.1/bin/../lib/gcc/arm-none-eabi/5.4.1/../../../../arm-none-eabi/lib/armv6-m\libg_nano.a(lib_a-mprec.o)
                0x000065da                __mdiff
 .text.__ulp    0x000066b0       0x48 c:/program files (x86)/cypress/psoc creator/4.4/psoc creator/import/gnu/arm/5.4.1/bin/../lib/gcc/arm-none-eabi/5.4.1/../../../../arm-none-eabi/lib/armv6-m\libg_nano.a(lib_a-mprec.o)
                0x000066b0                __ulp
 .text.__b2d    0x000066f8       0x98 c:/program files (x86)/cypress/psoc creator/4.4/psoc creator/import/gnu/arm/5.4.1/bin/../lib/gcc/arm-none-eabi/5.4.1/../../../../arm-none-eabi/lib/armv6-m\libg_nano.a(lib_a-mprec.o)
                0x000066f8                __b2d
 .text.__d2b    0x00006790       0xa8 c:/program files (x86)/cypress/psoc creator/4.4/psoc creator/import/gnu/arm/5.4.1/bin/../lib/gcc/arm-none-eabi/5.4.1/../../../../arm-none-eabi/lib/armv6-m\libg_nano.a(lib_a-mprec.o)
                0x00006790                __d2b
 .text.__ratio  0x00006838       0x50 c:/program files (x86)/cypress/psoc creator/4.4/psoc creator/import/gnu/arm/5.4.1/bin/../lib/gcc/arm-none-eabi/5.4.1/../../../../arm-none-eabi/lib/armv6-m\libg_nano.a(lib_a-mprec.o)
                0x00006838                __ratio
 .text.__copybits
                0x00006888       0x2c c:/program files (x86)/cypress/psoc creator/4.4/psoc creator/import/gnu/arm/5.4.1/bin/../lib/gcc/arm-none-eabi/5.4.1/../../../../arm-none-eabi/lib/armv6-m\libg_nano.a(lib_a-mprec.o)
                0x00006888                __copybits
 .text.__any_on
                0x000068b4       0x42 c:/program files (x86)/cypress/psoc creator/4.4/psoc creator/import/gnu/arm/5.4.1/bin/../lib/gcc/arm-none-eabi/5.4.1/../../../../arm-none-eabi/lib/armv6-m\libg_nano.a(lib_a-mprec.o)
                0x000068b4                __any_on
 .text._calloc_r
                0x000068f6       0x1c c:/program files (x86)/cypress/psoc creator/4.4/psoc creator/import/gnu/arm/5.4.1/bin/../lib/gcc/arm-none-eabi/5.4.1/../../../../arm-none-eabi/lib/armv6-m\libg_nano.a(lib_a-nano-callocr.o)
                0x000068f6                _calloc_r
 *fill*         0x00006912        0x2 
 .text._free_r  0x00006914       0x98 c:/program files (x86)/cypress/psoc creator/4.4/psoc creator/import/gnu/arm/5.4.1/bin/../lib/gcc/arm-none-eabi/5.4.1/../../../../arm-none-eabi/lib/armv6-m\libg_nano.a(lib_a-nano-freer.o)
                0x00006914                _free_r
 .text._malloc_r
                0x000069ac       0xc0 c:/program files (x86)/cypress/psoc creator/4.4/psoc creator/import/gnu/arm/5.4.1/bin/../lib/gcc/arm-none-eabi/5.4.1/../../../../arm-none-eabi/lib/armv6-m\libg_nano.a(lib_a-nano-mallocr.o)
                0x000069ac                _malloc_r
 .text.__sfputc_r
                0x00006a6c       0x2a c:/program files (x86)/cypress/psoc creator/4.4/psoc creator/import/gnu/arm/5.4.1/bin/../lib/gcc/arm-none-eabi/5.4.1/../../../../arm-none-eabi/lib/armv6-m\libg_nano.a(lib_a-nano-vfprintf.o)
 .text.__sfputs_r
                0x00006a96       0x24 c:/program files (x86)/cypress/psoc creator/4.4/psoc creator/import/gnu/arm/5.4.1/bin/../lib/gcc/arm-none-eabi/5.4.1/../../../../arm-none-eabi/lib/armv6-m\libg_nano.a(lib_a-nano-vfprintf.o)
                0x00006a96                __sfputs_r
 *fill*         0x00006aba        0x2 
 .text._vfprintf_r
                0x00006abc      0x238 c:/program files (x86)/cypress/psoc creator/4.4/psoc creator/import/gnu/arm/5.4.1/bin/../lib/gcc/arm-none-eabi/5.4.1/../../../../arm-none-eabi/lib/armv6-m\libg_nano.a(lib_a-nano-vfprintf.o)
                0x00006abc                _vfprintf_r
                0x00006abc                _vfiprintf_r
 .text._printf_common
                0x00006cf4       0xdc c:/program files (x86)/cypress/psoc creator/4.4/psoc creator/import/gnu/arm/5.4.1/bin/../lib/gcc/arm-none-eabi/5.4.1/../../../../arm-none-eabi/lib/armv6-m\libg_nano.a(lib_a-nano-vfprintf_i.o)
                0x00006cf4                _printf_common
 .text._printf_i
                0x00006dd0      0x244 c:/program files (x86)/cypress/psoc creator/4.4/psoc creator/import/gnu/arm/5.4.1/bin/../lib/gcc/arm-none-eabi/5.4.1/../../../../arm-none-eabi/lib/armv6-m\libg_nano.a(lib_a-nano-vfprintf_i.o)
                0x00006dd0                _printf_i
 .text._putc_r  0x00007014       0x6c c:/program files (x86)/cypress/psoc creator/4.4/psoc creator/import/gnu/arm/5.4.1/bin/../lib/gcc/arm-none-eabi/5.4.1/../../../../arm-none-eabi/lib/armv6-m\libg_nano.a(lib_a-putc.o)
                0x00007014                _putc_r
 .text._sbrk_r  0x00007080       0x24 c:/program files (x86)/cypress/psoc creator/4.4/psoc creator/import/gnu/arm/5.4.1/bin/../lib/gcc/arm-none-eabi/5.4.1/../../../../arm-none-eabi/lib/armv6-m\libg_nano.a(lib_a-sbrkr.o)
                0x00007080                _sbrk_r
 .text.__sread  0x000070a4       0x28 c:/program files (x86)/cypress/psoc creator/4.4/psoc creator/import/gnu/arm/5.4.1/bin/../lib/gcc/arm-none-eabi/5.4.1/../../../../arm-none-eabi/lib/armv6-m\libg_nano.a(lib_a-stdio.o)
                0x000070a4                __sread
 .text.__swrite
                0x000070cc       0x38 c:/program files (x86)/cypress/psoc creator/4.4/psoc creator/import/gnu/arm/5.4.1/bin/../lib/gcc/arm-none-eabi/5.4.1/../../../../arm-none-eabi/lib/armv6-m\libg_nano.a(lib_a-stdio.o)
                0x000070cc                __swrite
 .text.__sseek  0x00007104       0x2c c:/program files (x86)/cypress/psoc creator/4.4/psoc creator/import/gnu/arm/5.4.1/bin/../lib/gcc/arm-none-eabi/5.4.1/../../../../arm-none-eabi/lib/armv6-m\libg_nano.a(lib_a-stdio.o)
                0x00007104                __sseek
 .text.__sclose
                0x00007130        0xc c:/program files (x86)/cypress/psoc creator/4.4/psoc creator/import/gnu/arm/5.4.1/bin/../lib/gcc/arm-none-eabi/5.4.1/../../../../arm-none-eabi/lib/armv6-m\libg_nano.a(lib_a-stdio.o)
                0x00007130                __sclose
 .text          0x0000713c        0xe c:/program files (x86)/cypress/psoc creator/4.4/psoc creator/import/gnu/arm/5.4.1/bin/../lib/gcc/arm-none-eabi/5.4.1/../../../../arm-none-eabi/lib/armv6-m\libg_nano.a(lib_a-strlen.o)
                0x0000713c                strlen
 .text.strncmp  0x0000714a       0x24 c:/program files (x86)/cypress/psoc creator/4.4/psoc creator/import/gnu/arm/5.4.1/bin/../lib/gcc/arm-none-eabi/5.4.1/../../../../arm-none-eabi/lib/armv6-m\libg_nano.a(lib_a-strncmp.o)
                0x0000714a                strncmp
 *fill*         0x0000716e        0x2 
 .text._write_r
                0x00007170       0x28 c:/program files (x86)/cypress/psoc creator/4.4/psoc creator/import/gnu/arm/5.4.1/bin/../lib/gcc/arm-none-eabi/5.4.1/../../../../arm-none-eabi/lib/armv6-m\libg_nano.a(lib_a-writer.o)
                0x00007170                _write_r
 .text._close_r
                0x00007198       0x24 c:/program files (x86)/cypress/psoc creator/4.4/psoc creator/import/gnu/arm/5.4.1/bin/../lib/gcc/arm-none-eabi/5.4.1/../../../../arm-none-eabi/lib/armv6-m\libg_nano.a(lib_a-closer.o)
                0x00007198                _close_r
 .text._fstat_r
                0x000071bc       0x24 c:/program files (x86)/cypress/psoc creator/4.4/psoc creator/import/gnu/arm/5.4.1/bin/../lib/gcc/arm-none-eabi/5.4.1/../../../../arm-none-eabi/lib/armv6-m\libg_nano.a(lib_a-fstatr.o)
                0x000071bc                _fstat_r
 .text._isatty_r
                0x000071e0       0x24 c:/program files (x86)/cypress/psoc creator/4.4/psoc creator/import/gnu/arm/5.4.1/bin/../lib/gcc/arm-none-eabi/5.4.1/../../../../arm-none-eabi/lib/armv6-m\libg_nano.a(lib_a-isattyr.o)
                0x000071e0                _isatty_r
 .text._lseek_r
                0x00007204       0x28 c:/program files (x86)/cypress/psoc creator/4.4/psoc creator/import/gnu/arm/5.4.1/bin/../lib/gcc/arm-none-eabi/5.4.1/../../../../arm-none-eabi/lib/armv6-m\libg_nano.a(lib_a-lseekr.o)
                0x00007204                _lseek_r
 .text.malloc   0x0000722c       0x14 c:/program files (x86)/cypress/psoc creator/4.4/psoc creator/import/gnu/arm/5.4.1/bin/../lib/gcc/arm-none-eabi/5.4.1/../../../../arm-none-eabi/lib/armv6-m\libg_nano.a(lib_a-malloc.o)
                0x0000722c                malloc
 .text.memchr   0x00007240       0x16 c:/program files (x86)/cypress/psoc creator/4.4/psoc creator/import/gnu/arm/5.4.1/bin/../lib/gcc/arm-none-eabi/5.4.1/../../../../arm-none-eabi/lib/armv6-m\libg_nano.a(lib_a-memchr-stub.o)
                0x00007240                memchr
 .text.__malloc_lock
                0x00007256        0x2 c:/program files (x86)/cypress/psoc creator/4.4/psoc creator/import/gnu/arm/5.4.1/bin/../lib/gcc/arm-none-eabi/5.4.1/../../../../arm-none-eabi/lib/armv6-m\libg_nano.a(lib_a-mlock.o)
                0x00007256                __malloc_lock
 .text.__malloc_unlock
                0x00007258        0x2 c:/program files (x86)/cypress/psoc creator/4.4/psoc creator/import/gnu/arm/5.4.1/bin/../lib/gcc/arm-none-eabi/5.4.1/../../../../arm-none-eabi/lib/armv6-m\libg_nano.a(lib_a-mlock.o)
                0x00007258                __malloc_unlock
 *fill*         0x0000725a        0x2 
 .text._read_r  0x0000725c       0x28 c:/program files (x86)/cypress/psoc creator/4.4/psoc creator/import/gnu/arm/5.4.1/bin/../lib/gcc/arm-none-eabi/5.4.1/../../../../arm-none-eabi/lib/armv6-m\libg_nano.a(lib_a-readr.o)
                0x0000725c                _read_r
 .text          0x00007284       0x14 c:/program files (x86)/cypress/psoc creator/4.4/psoc creator/import/gnu/arm/5.4.1/bin/../lib/gcc/arm-none-eabi/5.4.1/armv6-m\libgcc.a(_thumb1_case_uqi.o)
                0x00007284                __gnu_thumb1_case_uqi
 .text          0x00007298      0x658 c:/program files (x86)/cypress/psoc creator/4.4/psoc creator/import/gnu/arm/5.4.1/bin/../lib/gcc/arm-none-eabi/5.4.1/armv6-m\libgcc.a(adddf3.o)
                0x00007298                __aeabi_dadd
 .text          0x000078f0       0x84 c:/program files (x86)/cypress/psoc creator/4.4/psoc creator/import/gnu/arm/5.4.1/bin/../lib/gcc/arm-none-eabi/5.4.1/armv6-m\libgcc.a(floatsidf.o)
                0x000078f0                __aeabi_i2d
 .text._close   0x00007974       0x10 c:/program files (x86)/cypress/psoc creator/4.4/psoc creator/import/gnu/arm/5.4.1/bin/../lib/gcc/arm-none-eabi/5.4.1/../../../../arm-none-eabi/lib/armv6-m\libnosys.a(close.o)
                0x00007974                _close
 .text._fstat   0x00007984       0x10 c:/program files (x86)/cypress/psoc creator/4.4/psoc creator/import/gnu/arm/5.4.1/bin/../lib/gcc/arm-none-eabi/5.4.1/../../../../arm-none-eabi/lib/armv6-m\libnosys.a(fstat.o)
                0x00007984                _fstat
 .text._isatty  0x00007994       0x10 c:/program files (x86)/cypress/psoc creator/4.4/psoc creator/import/gnu/arm/5.4.1/bin/../lib/gcc/arm-none-eabi/5.4.1/../../../../arm-none-eabi/lib/armv6-m\libnosys.a(isatty.o)
                0x00007994                _isatty
 .text._lseek   0x000079a4       0x10 c:/program files (x86)/cypress/psoc creator/4.4/psoc creator/import/gnu/arm/5.4.1/bin/../lib/gcc/arm-none-eabi/5.4.1/../../../../arm-none-eabi/lib/armv6-m\libnosys.a(lseek.o)
                0x000079a4                _lseek
 .text._read    0x000079b4       0x10 c:/program files (x86)/cypress/psoc creator/4.4/psoc creator/import/gnu/arm/5.4.1/bin/../lib/gcc/arm-none-eabi/5.4.1/../../../../arm-none-eabi/lib/armv6-m\libnosys.a(read.o)
                0x000079b4                _read
 *(.plt)
 *(.gnu.warning)
 *(.glue_7t)
 .glue_7t       0x000079c4        0x0 linker stubs
 *(.glue_7)
 .glue_7        0x000079c4        0x0 linker stubs
 *(.vfp11_veneer)
 .vfp11_veneer  0x000079c4        0x0 linker stubs
 *(.bootloader)
 *(.ARM.extab* .gnu.linkonce.armextab.*)
 *(.gcc_except_table)

.v4_bx          0x000079c4        0x0
 .v4_bx         0x000079c4        0x0 linker stubs

.iplt           0x000079c4        0x0
 .iplt          0x000079c4        0x0 c:/program files (x86)/cypress/psoc creator/4.4/psoc creator/import/gnu/arm/5.4.1/bin/../lib/gcc/arm-none-eabi/5.4.1/armv6-m/crtbegin.o

.eh_frame_hdr
 *(.eh_frame_hdr)

.eh_frame       0x000079c4        0x4
 *(.eh_frame)
 .eh_frame      0x000079c4        0x0 c:/program files (x86)/cypress/psoc creator/4.4/psoc creator/import/gnu/arm/5.4.1/bin/../lib/gcc/arm-none-eabi/5.4.1/armv6-m/crtbegin.o
 .eh_frame      0x000079c4        0x4 c:/program files (x86)/cypress/psoc creator/4.4/psoc creator/import/gnu/arm/5.4.1/bin/../lib/gcc/arm-none-eabi/5.4.1/armv6-m/crtend.o
                [!provide]                PROVIDE (__exidx_start, .)

.ARM.exidx
 *(.ARM.exidx* .gnu.linkonce.armexidx.*)
                0x000079c8                __exidx_end = .

.rodata         0x000079c8      0x868
 *(.rodata .rodata.* .gnu.linkonce.r.*)
 .rodata        0x000079c8       0xcc .\CortexM0\ARM_GCC_541\Debug\main.o
                0x00007a90                pwmperiod
 .rodata.str1.4
                0x00007a94      0x1ec .\CortexM0\ARM_GCC_541\Debug\main.o
                                0x1f0 (size before relaxing)
 .rodata        0x00007c80      0x20c .\CortexM0\ARM_GCC_541\Debug\cyfitter_cfg.o
 .rodata        0x00007e8c       0x2e .\CortexM0\ARM_GCC_541\Debug\BLDC Motor.a(CyLib.o)
                0x00007e8c                cyImoFreqMhz2Reg
 *fill*         0x00007eba        0x2 
 .rodata        0x00007ebc       0x80 c:/program files (x86)/cypress/psoc creator/4.4/psoc creator/import/gnu/arm/5.4.1/bin/../lib/gcc/arm-none-eabi/5.4.1/armv6-m\libgcc.a(divsf3.o)
 .rodata        0x00007f3c       0x40 c:/program files (x86)/cypress/psoc creator/4.4/psoc creator/import/gnu/arm/5.4.1/bin/../lib/gcc/arm-none-eabi/5.4.1/armv6-m\libgcc.a(mulsf3.o)
 .rodata        0x00007f7c       0x40 c:/program files (x86)/cypress/psoc creator/4.4/psoc creator/import/gnu/arm/5.4.1/bin/../lib/gcc/arm-none-eabi/5.4.1/armv6-m\libgcc.a(divdf3.o)
 .rodata        0x00007fbc       0x40 c:/program files (x86)/cypress/psoc creator/4.4/psoc creator/import/gnu/arm/5.4.1/bin/../lib/gcc/arm-none-eabi/5.4.1/armv6-m\libgcc.a(muldf3.o)
 .rodata.str1.1
                0x00007ffc        0x2 c:/program files (x86)/cypress/psoc creator/4.4/psoc creator/import/gnu/arm/5.4.1/bin/../lib/gcc/arm-none-eabi/5.4.1/../../../../arm-none-eabi/lib/armv6-m\libg_nano.a(lib_a-impure.o)
 *fill*         0x00007ffe        0x2 
 .rodata._global_impure_ptr
                0x00008000        0x4 c:/program files (x86)/cypress/psoc creator/4.4/psoc creator/import/gnu/arm/5.4.1/bin/../lib/gcc/arm-none-eabi/5.4.1/../../../../arm-none-eabi/lib/armv6-m\libg_nano.a(lib_a-impure.o)
                0x00008000                _global_impure_ptr
 .rodata.fpinan.5401
                0x00008004       0x14 c:/program files (x86)/cypress/psoc creator/4.4/psoc creator/import/gnu/arm/5.4.1/bin/../lib/gcc/arm-none-eabi/5.4.1/../../../../arm-none-eabi/lib/armv6-m\libg_nano.a(lib_a-strtod.o)
 .rodata.str1.1
                0x00008018        0xc c:/program files (x86)/cypress/psoc creator/4.4/psoc creator/import/gnu/arm/5.4.1/bin/../lib/gcc/arm-none-eabi/5.4.1/../../../../arm-none-eabi/lib/armv6-m\libg_nano.a(lib_a-strtod.o)
 .rodata.fpi.5365
                0x00008024       0x14 c:/program files (x86)/cypress/psoc creator/4.4/psoc creator/import/gnu/arm/5.4.1/bin/../lib/gcc/arm-none-eabi/5.4.1/../../../../arm-none-eabi/lib/armv6-m\libg_nano.a(lib_a-strtod.o)
 .rodata.tinytens
                0x00008038       0x28 c:/program files (x86)/cypress/psoc creator/4.4/psoc creator/import/gnu/arm/5.4.1/bin/../lib/gcc/arm-none-eabi/5.4.1/../../../../arm-none-eabi/lib/armv6-m\libg_nano.a(lib_a-strtod.o)
 .rodata.__sf_fake_stdin
                0x00008060       0x20 c:/program files (x86)/cypress/psoc creator/4.4/psoc creator/import/gnu/arm/5.4.1/bin/../lib/gcc/arm-none-eabi/5.4.1/../../../../arm-none-eabi/lib/armv6-m\libg_nano.a(lib_a-findfp.o)
                0x00008060                __sf_fake_stdin
 .rodata.__sf_fake_stdout
                0x00008080       0x20 c:/program files (x86)/cypress/psoc creator/4.4/psoc creator/import/gnu/arm/5.4.1/bin/../lib/gcc/arm-none-eabi/5.4.1/../../../../arm-none-eabi/lib/armv6-m\libg_nano.a(lib_a-findfp.o)
                0x00008080                __sf_fake_stdout
 .rodata.__sf_fake_stderr
                0x000080a0       0x20 c:/program files (x86)/cypress/psoc creator/4.4/psoc creator/import/gnu/arm/5.4.1/bin/../lib/gcc/arm-none-eabi/5.4.1/../../../../arm-none-eabi/lib/armv6-m\libg_nano.a(lib_a-findfp.o)
                0x000080a0                __sf_fake_stderr
 .rodata.str1.1
                0x000080c0        0x8 c:/program files (x86)/cypress/psoc creator/4.4/psoc creator/import/gnu/arm/5.4.1/bin/../lib/gcc/arm-none-eabi/5.4.1/../../../../arm-none-eabi/lib/armv6-m\libg_nano.a(lib_a-locale.o)
                                  0xb (size before relaxing)
 .rodata.__mprec_tens
                0x000080c8       0xc8 c:/program files (x86)/cypress/psoc creator/4.4/psoc creator/import/gnu/arm/5.4.1/bin/../lib/gcc/arm-none-eabi/5.4.1/../../../../arm-none-eabi/lib/armv6-m\libg_nano.a(lib_a-mprec.o)
                0x000080c8                __mprec_tens
 .rodata.p05.5408
                0x00008190        0xc c:/program files (x86)/cypress/psoc creator/4.4/psoc creator/import/gnu/arm/5.4.1/bin/../lib/gcc/arm-none-eabi/5.4.1/../../../../arm-none-eabi/lib/armv6-m\libg_nano.a(lib_a-mprec.o)
 *fill*         0x0000819c        0x4 
 .rodata.__mprec_bigtens
                0x000081a0       0x28 c:/program files (x86)/cypress/psoc creator/4.4/psoc creator/import/gnu/arm/5.4.1/bin/../lib/gcc/arm-none-eabi/5.4.1/../../../../arm-none-eabi/lib/armv6-m\libg_nano.a(lib_a-mprec.o)
                0x000081a0                __mprec_bigtens
 .rodata.str1.1
                0x000081c8       0x11 c:/program files (x86)/cypress/psoc creator/4.4/psoc creator/import/gnu/arm/5.4.1/bin/../lib/gcc/arm-none-eabi/5.4.1/../../../../arm-none-eabi/lib/armv6-m\libg_nano.a(lib_a-nano-vfprintf.o)
 .rodata.str1.1
                0x000081d9       0x22 c:/program files (x86)/cypress/psoc creator/4.4/psoc creator/import/gnu/arm/5.4.1/bin/../lib/gcc/arm-none-eabi/5.4.1/../../../../arm-none-eabi/lib/armv6-m\libg_nano.a(lib_a-nano-vfprintf_i.o)
                0x000081fc                . = ALIGN (0x4)
 *fill*         0x000081fb        0x1 
 *(.init)
 .init          0x000081fc        0x4 c:/program files (x86)/cypress/psoc creator/4.4/psoc creator/import/gnu/arm/5.4.1/bin/../lib/gcc/arm-none-eabi/5.4.1/armv6-m/crti.o
                0x000081fc                _init
 .init          0x00008200        0x8 c:/program files (x86)/cypress/psoc creator/4.4/psoc creator/import/gnu/arm/5.4.1/bin/../lib/gcc/arm-none-eabi/5.4.1/armv6-m/crtn.o
                0x00008208                . = ALIGN (0x4)
                0x00008208                __preinit_array_start = .
 *(.preinit_array)
                0x00008208                __preinit_array_end = .
                0x00008208                . = ALIGN (0x4)
                0x00008208                __init_array_start = .
 *(SORT(.init_array.*))
 *(.init_array)
 .init_array    0x00008208        0x4 c:/program files (x86)/cypress/psoc creator/4.4/psoc creator/import/gnu/arm/5.4.1/bin/../lib/gcc/arm-none-eabi/5.4.1/armv6-m/crtbegin.o
 .init_array    0x0000820c        0x4 .\CortexM0\ARM_GCC_541\Debug\Cm0Start.o
                0x00008210                __init_array_end = .
                0x00008210                . = ALIGN (0x4)
 *(.fini)
 .fini          0x00008210        0x4 c:/program files (x86)/cypress/psoc creator/4.4/psoc creator/import/gnu/arm/5.4.1/bin/../lib/gcc/arm-none-eabi/5.4.1/armv6-m/crti.o
                0x00008210                _fini
 .fini          0x00008214        0x8 c:/program files (x86)/cypress/psoc creator/4.4/psoc creator/import/gnu/arm/5.4.1/bin/../lib/gcc/arm-none-eabi/5.4.1/armv6-m/crtn.o
                0x0000821c                . = ALIGN (0x4)
                0x0000821c                __fini_array_start = .
 *(.fini_array)
 .fini_array    0x0000821c        0x4 c:/program files (x86)/cypress/psoc creator/4.4/psoc creator/import/gnu/arm/5.4.1/bin/../lib/gcc/arm-none-eabi/5.4.1/armv6-m/crtbegin.o
 *(SORT(.fini_array.*))
                0x00008220                __fini_array_end = .
                0x00008220                . = ALIGN (0x4)
 *crtbegin.o(.ctors)
 *(EXCLUDE_FILE(*crtend.o) .ctors)
 *(SORT(.ctors.*))
 *crtend.o(.ctors)
                0x00008220                . = ALIGN (0x4)
 *crtbegin.o(.dtors)
 *(EXCLUDE_FILE(*crtend.o) .dtors)
 *(SORT(.dtors.*))
 *crtend.o(.dtors)
                0x00008220                . = ALIGN (0x4)
                0x00008220                __cy_regions = .
                0x00008220        0x4 LONG 0x8230 __cy_region_init_ram
                0x00008224        0x4 LONG 0x200000c0 __cy_region_start_data
                0x00008228        0x4 LONG 0xe0 __cy_region_init_size_ram
                0x0000822c        0x4 LONG 0x168 __cy_region_zero_size_ram
                0x00008230                __cy_regions_end = .
                0x00008230                . = ALIGN (0x8)
                0x00008230                _etext = .

.cy_checksum_exclude
                0x00008230        0x0
 *(.cy_checksum_exclude)

.ramvectors     0x20000000       0xc0
                0x20000000                __cy_region_start_ram = .
 *(.ramvectors)
 .ramvectors    0x20000000       0xc0 .\CortexM0\ARM_GCC_541\Debug\Cm0Start.o
                0x20000000                CyRamVectors

.noinit
 *(.noinit)

.data           0x200000c0       0xe0 load address 0x00008230
                0x200000c0                __cy_region_start_data = .
 *(.jcr)
 .jcr           0x200000c0        0x0 c:/program files (x86)/cypress/psoc creator/4.4/psoc creator/import/gnu/arm/5.4.1/bin/../lib/gcc/arm-none-eabi/5.4.1/armv6-m/crtbegin.o
 .jcr           0x200000c0        0x4 c:/program files (x86)/cypress/psoc creator/4.4/psoc creator/import/gnu/arm/5.4.1/bin/../lib/gcc/arm-none-eabi/5.4.1/armv6-m/crtend.o
 *(.got.plt)
 *(.got)
 *(.shdata)
 *(.data .data.* .gnu.linkonce.d.*)
 .data          0x200000c4       0x1d .\CortexM0\ARM_GCC_541\Debug\main.o
                0x200000c4                spset
                0x200000c8                maxDC
                0x200000cc                dir
                0x200000d4                minspeedCW
                0x200000d8                minspeedCCW
                0x200000dc                stDCmax
                0x200000e0                CTRLcmd
 *fill*         0x200000e1        0x3 
 .data          0x200000e4        0x4 .\CortexM0\ARM_GCC_541\Debug\Cm0Start.o
 .data          0x200000e8       0x14 .\CortexM0\ARM_GCC_541\Debug\BLDC Motor.a(CyLib.o)
                0x200000e8                CySysClkPumpConfig
                0x200000ec                cydelay32kMs
                0x200000f0                cydelayFreqKhz
                0x200000f4                cydelayFreqMhz
                0x200000f8                cydelayFreqHz
 .data          0x200000fc        0x8 .\CortexM0\ARM_GCC_541\Debug\BLDC Motor.a(CyLFClk.o)
 .data.impure_data
                0x20000104       0x60 c:/program files (x86)/cypress/psoc creator/4.4/psoc creator/import/gnu/arm/5.4.1/bin/../lib/gcc/arm-none-eabi/5.4.1/../../../../arm-none-eabi/lib/armv6-m\libg_nano.a(lib_a-impure.o)
 .data._impure_ptr
                0x20000164        0x4 c:/program files (x86)/cypress/psoc creator/4.4/psoc creator/import/gnu/arm/5.4.1/bin/../lib/gcc/arm-none-eabi/5.4.1/../../../../arm-none-eabi/lib/armv6-m\libg_nano.a(lib_a-impure.o)
                0x20000164                _impure_ptr
 .data.lconv    0x20000168       0x38 c:/program files (x86)/cypress/psoc creator/4.4/psoc creator/import/gnu/arm/5.4.1/bin/../lib/gcc/arm-none-eabi/5.4.1/../../../../arm-none-eabi/lib/armv6-m\libg_nano.a(lib_a-locale.o)
                0x200001a0                . = ALIGN (0x8)
 *(.ram)
                0x200001a0                _edata = .

.igot.plt       0x200001a0        0x0 load address 0x00008310
 .igot.plt      0x200001a0        0x0 c:/program files (x86)/cypress/psoc creator/4.4/psoc creator/import/gnu/arm/5.4.1/bin/../lib/gcc/arm-none-eabi/5.4.1/armv6-m/crtbegin.o

.bss            0x200001a0      0x168 load address 0x00008310
                0x200001a0                PROVIDE (__bss_start__, .)
 *(.shbss)
 *(.bss .bss.* .gnu.linkonce.b.*)
 .bss           0x200001a0       0x1c c:/program files (x86)/cypress/psoc creator/4.4/psoc creator/import/gnu/arm/5.4.1/bin/../lib/gcc/arm-none-eabi/5.4.1/armv6-m/crtbegin.o
 .bss           0x200001bc       0x68 .\CortexM0\ARM_GCC_541\Debug\main.o
                0x200001d2                stamotor
                0x200001d3                sincmd
                0x200001e8                randircnt
                0x20000218                prevprintim
                0x2000021c                sindrive
                0x20000220                i2c_cnt
 .bss           0x20000224       0x28 .\CortexM0\ARM_GCC_541\Debug\BLDC Motor.a(CyLFClk.o)
 .bss           0x2000024c        0x1 .\CortexM0\ARM_GCC_541\Debug\BLDC Motor.a(PWM_A.o)
                0x2000024c                PWM_A_initVar
 .bss           0x2000024d        0x1 .\CortexM0\ARM_GCC_541\Debug\BLDC Motor.a(PWM_B.o)
                0x2000024d                PWM_B_initVar
 .bss           0x2000024e        0x1 .\CortexM0\ARM_GCC_541\Debug\BLDC Motor.a(PWM_C.o)
                0x2000024e                PWM_C_initVar
 *fill*         0x2000024f        0x1 
 .bss           0x20000250        0x4 .\CortexM0\ARM_GCC_541\Debug\BLDC Motor.a(UART.o)
                0x20000250                UART_initVar
                0x20000252                UART_IntrTxMask
 .bss           0x20000254        0x1 .\CortexM0\ARM_GCC_541\Debug\BLDC Motor.a(Counter_micros.o)
                0x20000254                Counter_micros_initVar
 *fill*         0x20000255        0x3 
 .bss.__malloc_sbrk_start
                0x20000258        0x4 c:/program files (x86)/cypress/psoc creator/4.4/psoc creator/import/gnu/arm/5.4.1/bin/../lib/gcc/arm-none-eabi/5.4.1/../../../../arm-none-eabi/lib/armv6-m\libg_nano.a(lib_a-nano-mallocr.o)
                0x20000258                __malloc_sbrk_start
 .bss.__malloc_free_list
                0x2000025c        0x4 c:/program files (x86)/cypress/psoc creator/4.4/psoc creator/import/gnu/arm/5.4.1/bin/../lib/gcc/arm-none-eabi/5.4.1/../../../../arm-none-eabi/lib/armv6-m\libg_nano.a(lib_a-nano-mallocr.o)
                0x2000025c                __malloc_free_list
 *(COMMON)
 COMMON         0x20000260       0x9d .\CortexM0\ARM_GCC_541\Debug\main.o
                0x20000260                rot
                0x20000264                b
                0x200002a8                p
                0x200002e0                prevmaintim
                0x200002e4                intptr
                0x200002e8                prevpwmtim
                0x200002ec                i2cfloat
                0x200002f0                Maxcount
                0x200002f4                i2cavail
                0x200002f5                startpulse
                0x200002f8                toberead
                0x200002fc                i2ccmd
 *fill*         0x200002fd        0x3 
 COMMON         0x20000300        0x4 c:/program files (x86)/cypress/psoc creator/4.4/psoc creator/import/gnu/arm/5.4.1/bin/../lib/gcc/arm-none-eabi/5.4.1/../../../../arm-none-eabi/lib/armv6-m\libg_nano.a(lib_a-reent.o)
                0x20000300                errno
                0x20000308                . = ALIGN (0x8)
 *fill*         0x20000304        0x4 
 *(.ram.b)
                0x20000308                _end = .
                0x20000308                __end = .
                0x20000308                PROVIDE (end, .)
                0x20000308                PROVIDE (__bss_end__, .)
                0x00008230                __cy_region_init_ram = LOADADDR (.data)
                0x000000e0                __cy_region_init_size_ram = (_edata - ADDR (.data))
                0x00000168                __cy_region_zero_size_ram = (_end - _edata)

.heap           0x20000308      0x200 load address 0x00008310
                0x20000308                . = _end
                0x20000508                . = (. + 0x200)
 *fill*         0x20000308      0x200 
                0x20000508                __cy_heap_limit = .

.stack          0x20003800      0x800
                0x20003800                __cy_stack_limit = .
                0x20004000                . = (. + 0x800)
 *fill*         0x20003800      0x800 
                0x00000001                ASSERT ((__cy_stack_limit >= __cy_heap_limit), region RAM overflowed with stack)
                0x00000000                cy_checksum_exclude_size = (CY_APPL_LOADABLE == 0x1)?SIZEOF (.cy_checksum_exclude):0x0
                0x00000001                ASSERT ((cy_checksum_exclude_size <= CY_CHECKSUM_EXCLUDE_SIZE), CY_BOOT: Section .cy_checksum_exclude size exceedes specified limit.)
                0x0001ffc0                cyloadermeta_start = (cy_project_type_bootloader || cy_project_type_app_for_stack_and_copier)?(LENGTH (rom) - CY_METADATA_SIZE):0xf0000000

.cyloadermeta
 *(.cyloadermeta)
                0x0001ffc0                cyloadablemeta_start = cy_project_type_app_for_stack_and_copier?((LENGTH (rom) - CY_FLASH_ROW_SIZE) - CY_METADATA_SIZE):((LENGTH (rom) - (CY_FLASH_ROW_SIZE * (CY_APPL_NUM - 0x1))) - CY_METADATA_SIZE)

.cyloadablemeta
 *(.cyloadablemeta)

.cyflashprotect
                0x90400000       0x80
 *(.cyflashprotect)
 .cyflashprotect
                0x90400000       0x80 .\CortexM0\ARM_GCC_541\Debug\cymetadata.o
                0x90400000                cy_meta_flashprotect

.cymeta         0x90500000        0xc
 *(.cymeta)
 .cymeta        0x90500000        0xc .\CortexM0\ARM_GCC_541\Debug\cymetadata.o
                0x90500000                cy_metadata

.cychipprotect  0x90600000        0x1
 *(.cychipprotect)
 .cychipprotect
                0x90600000        0x1 .\CortexM0\ARM_GCC_541\Debug\cymetadata.o
                0x90600000                cy_meta_chipprotect

.rel.dyn        0x00008310        0x0 load address 0x90600004
 .rel.iplt      0x00008310        0x0 c:/program files (x86)/cypress/psoc creator/4.4/psoc creator/import/gnu/arm/5.4.1/bin/../lib/gcc/arm-none-eabi/5.4.1/armv6-m/crtbegin.o

.stab           0x00000000       0x84
 *(.stab)
 .stab          0x00000000       0x24 c:/program files (x86)/cypress/psoc creator/4.4/psoc creator/import/gnu/arm/5.4.1/bin/../lib/gcc/arm-none-eabi/5.4.1/../../../../arm-none-eabi/lib/armv6-m\libnosys.a(close.o)
 .stab          0x00000024       0x18 c:/program files (x86)/cypress/psoc creator/4.4/psoc creator/import/gnu/arm/5.4.1/bin/../lib/gcc/arm-none-eabi/5.4.1/../../../../arm-none-eabi/lib/armv6-m\libnosys.a(fstat.o)
                                 0x24 (size before relaxing)
 .stab          0x0000003c       0x18 c:/program files (x86)/cypress/psoc creator/4.4/psoc creator/import/gnu/arm/5.4.1/bin/../lib/gcc/arm-none-eabi/5.4.1/../../../../arm-none-eabi/lib/armv6-m\libnosys.a(isatty.o)
                                 0x24 (size before relaxing)
 .stab          0x00000054       0x18 c:/program files (x86)/cypress/psoc creator/4.4/psoc creator/import/gnu/arm/5.4.1/bin/../lib/gcc/arm-none-eabi/5.4.1/../../../../arm-none-eabi/lib/armv6-m\libnosys.a(lseek.o)
                                 0x24 (size before relaxing)
 .stab          0x0000006c       0x18 c:/program files (x86)/cypress/psoc creator/4.4/psoc creator/import/gnu/arm/5.4.1/bin/../lib/gcc/arm-none-eabi/5.4.1/../../../../arm-none-eabi/lib/armv6-m\libnosys.a(read.o)
                                 0x24 (size before relaxing)

.stabstr        0x00000000      0x117
 *(.stabstr)
 .stabstr       0x00000000      0x117 c:/program files (x86)/cypress/psoc creator/4.4/psoc creator/import/gnu/arm/5.4.1/bin/../lib/gcc/arm-none-eabi/5.4.1/../../../../arm-none-eabi/lib/armv6-m\libnosys.a(close.o)

.debug
 *(.debug)

.line
 *(.line)

.debug_srcinfo
 *(.debug_srcinfo)

.debug_sfnames
 *(.debug_sfnames)

.debug_aranges  0x00000000     0x1128
 *(.debug_aranges)
 .debug_aranges
                0x00000000      0x178 .\CortexM0\ARM_GCC_541\Debug\main.o
 .debug_aranges
                0x00000178       0x40 .\CortexM0\ARM_GCC_541\Debug\cyfitter_cfg.o
 .debug_aranges
                0x000001b8       0x18 .\CortexM0\ARM_GCC_541\Debug\cymetadata.o
 .debug_aranges
                0x000001d0       0x48 .\CortexM0\ARM_GCC_541\Debug\Cm0Start.o
 .debug_aranges
                0x00000218       0x48 .\CortexM0\ARM_GCC_541\Debug\BLDC Motor.a(INHA.o)
 .debug_aranges
                0x00000260       0x48 .\CortexM0\ARM_GCC_541\Debug\BLDC Motor.a(INHB.o)
 .debug_aranges
                0x000002a8       0x48 .\CortexM0\ARM_GCC_541\Debug\BLDC Motor.a(INHC.o)
 .debug_aranges
                0x000002f0      0x1c8 .\CortexM0\ARM_GCC_541\Debug\BLDC Motor.a(CyLib.o)
 .debug_aranges
                0x000004b8      0x188 .\CortexM0\ARM_GCC_541\Debug\BLDC Motor.a(CyLFClk.o)
 .debug_aranges
                0x00000640      0x158 .\CortexM0\ARM_GCC_541\Debug\BLDC Motor.a(PWM_A.o)
 .debug_aranges
                0x00000798      0x158 .\CortexM0\ARM_GCC_541\Debug\BLDC Motor.a(PWM_B.o)
 .debug_aranges
                0x000008f0      0x158 .\CortexM0\ARM_GCC_541\Debug\BLDC Motor.a(PWM_C.o)
 .debug_aranges
                0x00000a48       0x48 .\CortexM0\ARM_GCC_541\Debug\BLDC Motor.a(u.o)
 .debug_aranges
                0x00000a90       0x48 .\CortexM0\ARM_GCC_541\Debug\BLDC Motor.a(v.o)
 .debug_aranges
                0x00000ad8       0x48 .\CortexM0\ARM_GCC_541\Debug\BLDC Motor.a(w.o)
 .debug_aranges
                0x00000b20       0x58 .\CortexM0\ARM_GCC_541\Debug\BLDC Motor.a(UART.o)
 .debug_aranges
                0x00000b78       0x60 .\CortexM0\ARM_GCC_541\Debug\BLDC Motor.a(UART_SPI_UART.o)
 .debug_aranges
                0x00000bd8       0x90 .\CortexM0\ARM_GCC_541\Debug\BLDC Motor.a(UART_UART.o)
 .debug_aranges
                0x00000c68       0x48 .\CortexM0\ARM_GCC_541\Debug\BLDC Motor.a(CTRL.o)
 .debug_aranges
                0x00000cb0       0x98 .\CortexM0\ARM_GCC_541\Debug\BLDC Motor.a(Counter_micros.o)
 .debug_aranges
                0x00000d48       0x80 .\CortexM0\ARM_GCC_541\Debug\BLDC Motor.a(isr_millis.o)
 .debug_aranges
                0x00000dc8       0x80 .\CortexM0\ARM_GCC_541\Debug\BLDC Motor.a(isr_uf.o)
 .debug_aranges
                0x00000e48       0x80 .\CortexM0\ARM_GCC_541\Debug\BLDC Motor.a(isr_vf.o)
 .debug_aranges
                0x00000ec8       0x80 .\CortexM0\ARM_GCC_541\Debug\BLDC Motor.a(isr_wf.o)
 .debug_aranges
                0x00000f48       0x80 .\CortexM0\ARM_GCC_541\Debug\BLDC Motor.a(isr_wr.o)
 .debug_aranges
                0x00000fc8       0x80 .\CortexM0\ARM_GCC_541\Debug\BLDC Motor.a(isr_vr.o)
 .debug_aranges
                0x00001048       0x80 .\CortexM0\ARM_GCC_541\Debug\BLDC Motor.a(isr_ur.o)
 .debug_aranges
                0x000010c8       0x20 .\CortexM0\ARM_GCC_541\Debug\BLDC Motor.a(CyBootAsmGnu.o)
 .debug_aranges
                0x000010e8       0x40 .\CortexM0\ARM_GCC_541\Debug\BLDC Motor.a(CyFlash.o)

.debug_pubnames
 *(.debug_pubnames)

.debug_info     0x00000000     0x8e6c
 *(.debug_info .gnu.linkonce.wi.*)
 .debug_info    0x00000000     0x1d8d .\CortexM0\ARM_GCC_541\Debug\main.o
 .debug_info    0x00001d8d      0x3cd .\CortexM0\ARM_GCC_541\Debug\cyfitter_cfg.o
 .debug_info    0x0000215a       0xf8 .\CortexM0\ARM_GCC_541\Debug\cymetadata.o
 .debug_info    0x00002252      0x3a2 .\CortexM0\ARM_GCC_541\Debug\Cm0Start.o
 .debug_info    0x000025f4      0x19d .\CortexM0\ARM_GCC_541\Debug\BLDC Motor.a(INHA.o)
 .debug_info    0x00002791      0x19d .\CortexM0\ARM_GCC_541\Debug\BLDC Motor.a(INHB.o)
 .debug_info    0x0000292e      0x19d .\CortexM0\ARM_GCC_541\Debug\BLDC Motor.a(INHC.o)
 .debug_info    0x00002acb      0xd40 .\CortexM0\ARM_GCC_541\Debug\BLDC Motor.a(CyLib.o)
 .debug_info    0x0000380b     0x1058 .\CortexM0\ARM_GCC_541\Debug\BLDC Motor.a(CyLFClk.o)
 .debug_info    0x00004863      0x90b .\CortexM0\ARM_GCC_541\Debug\BLDC Motor.a(PWM_A.o)
 .debug_info    0x0000516e      0x90a .\CortexM0\ARM_GCC_541\Debug\BLDC Motor.a(PWM_B.o)
 .debug_info    0x00005a78      0x90b .\CortexM0\ARM_GCC_541\Debug\BLDC Motor.a(PWM_C.o)
 .debug_info    0x00006383      0x19d .\CortexM0\ARM_GCC_541\Debug\BLDC Motor.a(u.o)
 .debug_info    0x00006520      0x19d .\CortexM0\ARM_GCC_541\Debug\BLDC Motor.a(v.o)
 .debug_info    0x000066bd      0x19b .\CortexM0\ARM_GCC_541\Debug\BLDC Motor.a(w.o)
 .debug_info    0x00006858      0x23a .\CortexM0\ARM_GCC_541\Debug\BLDC Motor.a(UART.o)
 .debug_info    0x00006a92      0x220 .\CortexM0\ARM_GCC_541\Debug\BLDC Motor.a(UART_SPI_UART.o)
 .debug_info    0x00006cb2      0x3b5 .\CortexM0\ARM_GCC_541\Debug\BLDC Motor.a(UART_UART.o)
 .debug_info    0x00007067      0x19d .\CortexM0\ARM_GCC_541\Debug\BLDC Motor.a(CTRL.o)
 .debug_info    0x00007204      0x345 .\CortexM0\ARM_GCC_541\Debug\BLDC Motor.a(Counter_micros.o)
 .debug_info    0x00007549      0x305 .\CortexM0\ARM_GCC_541\Debug\BLDC Motor.a(isr_millis.o)
 .debug_info    0x0000784e      0x305 .\CortexM0\ARM_GCC_541\Debug\BLDC Motor.a(isr_uf.o)
 .debug_info    0x00007b53      0x305 .\CortexM0\ARM_GCC_541\Debug\BLDC Motor.a(isr_vf.o)
 .debug_info    0x00007e58      0x305 .\CortexM0\ARM_GCC_541\Debug\BLDC Motor.a(isr_wf.o)
 .debug_info    0x0000815d      0x305 .\CortexM0\ARM_GCC_541\Debug\BLDC Motor.a(isr_wr.o)
 .debug_info    0x00008462      0x305 .\CortexM0\ARM_GCC_541\Debug\BLDC Motor.a(isr_vr.o)
 .debug_info    0x00008767      0x305 .\CortexM0\ARM_GCC_541\Debug\BLDC Motor.a(isr_ur.o)
 .debug_info    0x00008a6c       0xb0 .\CortexM0\ARM_GCC_541\Debug\BLDC Motor.a(CyBootAsmGnu.o)
 .debug_info    0x00008b1c      0x350 .\CortexM0\ARM_GCC_541\Debug\BLDC Motor.a(CyFlash.o)

.debug_abbrev   0x00000000     0x2572
 *(.debug_abbrev)
 .debug_abbrev  0x00000000      0x340 .\CortexM0\ARM_GCC_541\Debug\main.o
 .debug_abbrev  0x00000340      0x1af .\CortexM0\ARM_GCC_541\Debug\cyfitter_cfg.o
 .debug_abbrev  0x000004ef       0x5d .\CortexM0\ARM_GCC_541\Debug\cymetadata.o
 .debug_abbrev  0x0000054c      0x1d7 .\CortexM0\ARM_GCC_541\Debug\Cm0Start.o
 .debug_abbrev  0x00000723       0xc8 .\CortexM0\ARM_GCC_541\Debug\BLDC Motor.a(INHA.o)
 .debug_abbrev  0x000007eb       0xc8 .\CortexM0\ARM_GCC_541\Debug\BLDC Motor.a(INHB.o)
 .debug_abbrev  0x000008b3       0xc8 .\CortexM0\ARM_GCC_541\Debug\BLDC Motor.a(INHC.o)
 .debug_abbrev  0x0000097b      0x20b .\CortexM0\ARM_GCC_541\Debug\BLDC Motor.a(CyLib.o)
 .debug_abbrev  0x00000b86      0x248 .\CortexM0\ARM_GCC_541\Debug\BLDC Motor.a(CyLFClk.o)
 .debug_abbrev  0x00000dce      0x119 .\CortexM0\ARM_GCC_541\Debug\BLDC Motor.a(PWM_A.o)
 .debug_abbrev  0x00000ee7      0x119 .\CortexM0\ARM_GCC_541\Debug\BLDC Motor.a(PWM_B.o)
 .debug_abbrev  0x00001000      0x119 .\CortexM0\ARM_GCC_541\Debug\BLDC Motor.a(PWM_C.o)
 .debug_abbrev  0x00001119       0xc8 .\CortexM0\ARM_GCC_541\Debug\BLDC Motor.a(u.o)
 .debug_abbrev  0x000011e1       0xc8 .\CortexM0\ARM_GCC_541\Debug\BLDC Motor.a(v.o)
 .debug_abbrev  0x000012a9       0xc8 .\CortexM0\ARM_GCC_541\Debug\BLDC Motor.a(w.o)
 .debug_abbrev  0x00001371       0xd5 .\CortexM0\ARM_GCC_541\Debug\BLDC Motor.a(UART.o)
 .debug_abbrev  0x00001446      0x14f .\CortexM0\ARM_GCC_541\Debug\BLDC Motor.a(UART_SPI_UART.o)
 .debug_abbrev  0x00001595      0x132 .\CortexM0\ARM_GCC_541\Debug\BLDC Motor.a(UART_UART.o)
 .debug_abbrev  0x000016c7       0xc8 .\CortexM0\ARM_GCC_541\Debug\BLDC Motor.a(CTRL.o)
 .debug_abbrev  0x0000178f      0x117 .\CortexM0\ARM_GCC_541\Debug\BLDC Motor.a(Counter_micros.o)
 .debug_abbrev  0x000018a6      0x19a .\CortexM0\ARM_GCC_541\Debug\BLDC Motor.a(isr_millis.o)
 .debug_abbrev  0x00001a40      0x19a .\CortexM0\ARM_GCC_541\Debug\BLDC Motor.a(isr_uf.o)
 .debug_abbrev  0x00001bda      0x19a .\CortexM0\ARM_GCC_541\Debug\BLDC Motor.a(isr_vf.o)
 .debug_abbrev  0x00001d74      0x19a .\CortexM0\ARM_GCC_541\Debug\BLDC Motor.a(isr_wf.o)
 .debug_abbrev  0x00001f0e      0x19a .\CortexM0\ARM_GCC_541\Debug\BLDC Motor.a(isr_wr.o)
 .debug_abbrev  0x000020a8      0x19a .\CortexM0\ARM_GCC_541\Debug\BLDC Motor.a(isr_vr.o)
 .debug_abbrev  0x00002242      0x19a .\CortexM0\ARM_GCC_541\Debug\BLDC Motor.a(isr_ur.o)
 .debug_abbrev  0x000023dc       0x14 .\CortexM0\ARM_GCC_541\Debug\BLDC Motor.a(CyBootAsmGnu.o)
 .debug_abbrev  0x000023f0      0x182 .\CortexM0\ARM_GCC_541\Debug\BLDC Motor.a(CyFlash.o)

.debug_line     0x00000000     0x38a5
 *(.debug_line)
 .debug_line    0x00000000      0x838 .\CortexM0\ARM_GCC_541\Debug\main.o
 .debug_line    0x00000838      0x18d .\CortexM0\ARM_GCC_541\Debug\cyfitter_cfg.o
 .debug_line    0x000009c5      0x141 .\CortexM0\ARM_GCC_541\Debug\cymetadata.o
 .debug_line    0x00000b06      0x236 .\CortexM0\ARM_GCC_541\Debug\Cm0Start.o
 .debug_line    0x00000d3c       0xbc .\CortexM0\ARM_GCC_541\Debug\BLDC Motor.a(INHA.o)
 .debug_line    0x00000df8       0xbc .\CortexM0\ARM_GCC_541\Debug\BLDC Motor.a(INHB.o)
 .debug_line    0x00000eb4       0xbc .\CortexM0\ARM_GCC_541\Debug\BLDC Motor.a(INHC.o)
 .debug_line    0x00000f70      0x563 .\CortexM0\ARM_GCC_541\Debug\BLDC Motor.a(CyLib.o)
 .debug_line    0x000014d3      0x5d1 .\CortexM0\ARM_GCC_541\Debug\BLDC Motor.a(CyLFClk.o)
 .debug_line    0x00001aa4      0x37e .\CortexM0\ARM_GCC_541\Debug\BLDC Motor.a(PWM_A.o)
 .debug_line    0x00001e22      0x37e .\CortexM0\ARM_GCC_541\Debug\BLDC Motor.a(PWM_B.o)
 .debug_line    0x000021a0      0x37e .\CortexM0\ARM_GCC_541\Debug\BLDC Motor.a(PWM_C.o)
 .debug_line    0x0000251e       0xb9 .\CortexM0\ARM_GCC_541\Debug\BLDC Motor.a(u.o)
 .debug_line    0x000025d7       0xb9 .\CortexM0\ARM_GCC_541\Debug\BLDC Motor.a(v.o)
 .debug_line    0x00002690       0xb8 .\CortexM0\ARM_GCC_541\Debug\BLDC Motor.a(w.o)
 .debug_line    0x00002748      0x108 .\CortexM0\ARM_GCC_541\Debug\BLDC Motor.a(UART.o)
 .debug_line    0x00002850      0x11a .\CortexM0\ARM_GCC_541\Debug\BLDC Motor.a(UART_SPI_UART.o)
 .debug_line    0x0000296a      0x1cf .\CortexM0\ARM_GCC_541\Debug\BLDC Motor.a(UART_UART.o)
 .debug_line    0x00002b39       0xbc .\CortexM0\ARM_GCC_541\Debug\BLDC Motor.a(CTRL.o)
 .debug_line    0x00002bf5      0x197 .\CortexM0\ARM_GCC_541\Debug\BLDC Motor.a(Counter_micros.o)
 .debug_line    0x00002d8c      0x152 .\CortexM0\ARM_GCC_541\Debug\BLDC Motor.a(isr_millis.o)
 .debug_line    0x00002ede      0x152 .\CortexM0\ARM_GCC_541\Debug\BLDC Motor.a(isr_uf.o)
 .debug_line    0x00003030      0x152 .\CortexM0\ARM_GCC_541\Debug\BLDC Motor.a(isr_vf.o)
 .debug_line    0x00003182      0x152 .\CortexM0\ARM_GCC_541\Debug\BLDC Motor.a(isr_wf.o)
 .debug_line    0x000032d4      0x152 .\CortexM0\ARM_GCC_541\Debug\BLDC Motor.a(isr_wr.o)
 .debug_line    0x00003426      0x152 .\CortexM0\ARM_GCC_541\Debug\BLDC Motor.a(isr_vr.o)
 .debug_line    0x00003578      0x152 .\CortexM0\ARM_GCC_541\Debug\BLDC Motor.a(isr_ur.o)
 .debug_line    0x000036ca       0x68 .\CortexM0\ARM_GCC_541\Debug\BLDC Motor.a(CyBootAsmGnu.o)
 .debug_line    0x00003732      0x173 .\CortexM0\ARM_GCC_541\Debug\BLDC Motor.a(CyFlash.o)

.debug_frame    0x00000000     0x3d2c
 *(.debug_frame)
 .debug_frame   0x00000000      0x4f8 .\CortexM0\ARM_GCC_541\Debug\main.o
 .debug_frame   0x000004f8       0x98 .\CortexM0\ARM_GCC_541\Debug\cyfitter_cfg.o
 .debug_frame   0x00000590       0xbc .\CortexM0\ARM_GCC_541\Debug\Cm0Start.o
 .debug_frame   0x0000064c       0x70 .\CortexM0\ARM_GCC_541\Debug\BLDC Motor.a(INHA.o)
 .debug_frame   0x000006bc       0x70 .\CortexM0\ARM_GCC_541\Debug\BLDC Motor.a(INHB.o)
 .debug_frame   0x0000072c       0x70 .\CortexM0\ARM_GCC_541\Debug\BLDC Motor.a(INHC.o)
 .debug_frame   0x0000079c      0x48c .\CortexM0\ARM_GCC_541\Debug\BLDC Motor.a(CyLib.o)
 .debug_frame   0x00000c28      0x4a4 .\CortexM0\ARM_GCC_541\Debug\BLDC Motor.a(CyLFClk.o)
 .debug_frame   0x000010cc      0x3a0 .\CortexM0\ARM_GCC_541\Debug\BLDC Motor.a(PWM_A.o)
 .debug_frame   0x0000146c      0x3a0 .\CortexM0\ARM_GCC_541\Debug\BLDC Motor.a(PWM_B.o)
 .debug_frame   0x0000180c      0x3a0 .\CortexM0\ARM_GCC_541\Debug\BLDC Motor.a(PWM_C.o)
 .debug_frame   0x00001bac       0x70 .\CortexM0\ARM_GCC_541\Debug\BLDC Motor.a(u.o)
 .debug_frame   0x00001c1c       0x70 .\CortexM0\ARM_GCC_541\Debug\BLDC Motor.a(v.o)
 .debug_frame   0x00001c8c       0x70 .\CortexM0\ARM_GCC_541\Debug\BLDC Motor.a(w.o)
 .debug_frame   0x00001cfc       0xd8 .\CortexM0\ARM_GCC_541\Debug\BLDC Motor.a(UART.o)
 .debug_frame   0x00001dd4       0xb0 .\CortexM0\ARM_GCC_541\Debug\BLDC Motor.a(UART_SPI_UART.o)
 .debug_frame   0x00001e84      0x144 .\CortexM0\ARM_GCC_541\Debug\BLDC Motor.a(UART_UART.o)
 .debug_frame   0x00001fc8       0x70 .\CortexM0\ARM_GCC_541\Debug\BLDC Motor.a(CTRL.o)
 .debug_frame   0x00002038      0x134 .\CortexM0\ARM_GCC_541\Debug\BLDC Motor.a(Counter_micros.o)
 .debug_frame   0x0000216c      0x110 .\CortexM0\ARM_GCC_541\Debug\BLDC Motor.a(isr_millis.o)
 .debug_frame   0x0000227c      0x110 .\CortexM0\ARM_GCC_541\Debug\BLDC Motor.a(isr_uf.o)
 .debug_frame   0x0000238c      0x110 .\CortexM0\ARM_GCC_541\Debug\BLDC Motor.a(isr_vf.o)
 .debug_frame   0x0000249c      0x110 .\CortexM0\ARM_GCC_541\Debug\BLDC Motor.a(isr_wf.o)
 .debug_frame   0x000025ac      0x110 .\CortexM0\ARM_GCC_541\Debug\BLDC Motor.a(isr_wr.o)
 .debug_frame   0x000026bc      0x110 .\CortexM0\ARM_GCC_541\Debug\BLDC Motor.a(isr_vr.o)
 .debug_frame   0x000027cc      0x110 .\CortexM0\ARM_GCC_541\Debug\BLDC Motor.a(isr_ur.o)
 .debug_frame   0x000028dc       0x90 .\CortexM0\ARM_GCC_541\Debug\BLDC Motor.a(CyFlash.o)
 .debug_frame   0x0000296c       0x20 c:/program files (x86)/cypress/psoc creator/4.4/psoc creator/import/gnu/arm/5.4.1/bin/../lib/gcc/arm-none-eabi/5.4.1/armv6-m\libgcc.a(_udivsi3.o)
 .debug_frame   0x0000298c       0x20 c:/program files (x86)/cypress/psoc creator/4.4/psoc creator/import/gnu/arm/5.4.1/bin/../lib/gcc/arm-none-eabi/5.4.1/armv6-m\libgcc.a(_divsi3.o)
 .debug_frame   0x000029ac       0x28 c:/program files (x86)/cypress/psoc creator/4.4/psoc creator/import/gnu/arm/5.4.1/bin/../lib/gcc/arm-none-eabi/5.4.1/armv6-m\libgcc.a(_fixunssfsi.o)
 .debug_frame   0x000029d4       0x2c c:/program files (x86)/cypress/psoc creator/4.4/psoc creator/import/gnu/arm/5.4.1/bin/../lib/gcc/arm-none-eabi/5.4.1/armv6-m\libgcc.a(_fixunsdfsi.o)
 .debug_frame   0x00002a00       0x30 c:/program files (x86)/cypress/psoc creator/4.4/psoc creator/import/gnu/arm/5.4.1/bin/../lib/gcc/arm-none-eabi/5.4.1/armv6-m\libgcc.a(addsf3.o)
 .debug_frame   0x00002a30       0x3c c:/program files (x86)/cypress/psoc creator/4.4/psoc creator/import/gnu/arm/5.4.1/bin/../lib/gcc/arm-none-eabi/5.4.1/armv6-m\libgcc.a(divsf3.o)
 .debug_frame   0x00002a6c       0x2c c:/program files (x86)/cypress/psoc creator/4.4/psoc creator/import/gnu/arm/5.4.1/bin/../lib/gcc/arm-none-eabi/5.4.1/armv6-m\libgcc.a(eqsf2.o)
 .debug_frame   0x00002a98       0x30 c:/program files (x86)/cypress/psoc creator/4.4/psoc creator/import/gnu/arm/5.4.1/bin/../lib/gcc/arm-none-eabi/5.4.1/armv6-m\libgcc.a(gesf2.o)
 .debug_frame   0x00002ac8       0x30 c:/program files (x86)/cypress/psoc creator/4.4/psoc creator/import/gnu/arm/5.4.1/bin/../lib/gcc/arm-none-eabi/5.4.1/armv6-m\libgcc.a(lesf2.o)
 .debug_frame   0x00002af8       0x38 c:/program files (x86)/cypress/psoc creator/4.4/psoc creator/import/gnu/arm/5.4.1/bin/../lib/gcc/arm-none-eabi/5.4.1/armv6-m\libgcc.a(mulsf3.o)
 .debug_frame   0x00002b30       0x30 c:/program files (x86)/cypress/psoc creator/4.4/psoc creator/import/gnu/arm/5.4.1/bin/../lib/gcc/arm-none-eabi/5.4.1/armv6-m\libgcc.a(subsf3.o)
 .debug_frame   0x00002b60       0x20 c:/program files (x86)/cypress/psoc creator/4.4/psoc creator/import/gnu/arm/5.4.1/bin/../lib/gcc/arm-none-eabi/5.4.1/armv6-m\libgcc.a(fixsfsi.o)
 .debug_frame   0x00002b80       0x2c c:/program files (x86)/cypress/psoc creator/4.4/psoc creator/import/gnu/arm/5.4.1/bin/../lib/gcc/arm-none-eabi/5.4.1/armv6-m\libgcc.a(floatsisf.o)
 .debug_frame   0x00002bac       0x2c c:/program files (x86)/cypress/psoc creator/4.4/psoc creator/import/gnu/arm/5.4.1/bin/../lib/gcc/arm-none-eabi/5.4.1/armv6-m\libgcc.a(floatunsisf.o)
 .debug_frame   0x00002bd8       0x3c c:/program files (x86)/cypress/psoc creator/4.4/psoc creator/import/gnu/arm/5.4.1/bin/../lib/gcc/arm-none-eabi/5.4.1/armv6-m\libgcc.a(divdf3.o)
 .debug_frame   0x00002c14       0x38 c:/program files (x86)/cypress/psoc creator/4.4/psoc creator/import/gnu/arm/5.4.1/bin/../lib/gcc/arm-none-eabi/5.4.1/armv6-m\libgcc.a(eqdf2.o)
 .debug_frame   0x00002c4c       0x38 c:/program files (x86)/cypress/psoc creator/4.4/psoc creator/import/gnu/arm/5.4.1/bin/../lib/gcc/arm-none-eabi/5.4.1/armv6-m\libgcc.a(gedf2.o)
 .debug_frame   0x00002c84       0x38 c:/program files (x86)/cypress/psoc creator/4.4/psoc creator/import/gnu/arm/5.4.1/bin/../lib/gcc/arm-none-eabi/5.4.1/armv6-m\libgcc.a(ledf2.o)
 .debug_frame   0x00002cbc       0x3c c:/program files (x86)/cypress/psoc creator/4.4/psoc creator/import/gnu/arm/5.4.1/bin/../lib/gcc/arm-none-eabi/5.4.1/armv6-m\libgcc.a(muldf3.o)
 .debug_frame   0x00002cf8       0x38 c:/program files (x86)/cypress/psoc creator/4.4/psoc creator/import/gnu/arm/5.4.1/bin/../lib/gcc/arm-none-eabi/5.4.1/armv6-m\libgcc.a(subdf3.o)
 .debug_frame   0x00002d30       0x2c c:/program files (x86)/cypress/psoc creator/4.4/psoc creator/import/gnu/arm/5.4.1/bin/../lib/gcc/arm-none-eabi/5.4.1/armv6-m\libgcc.a(fixdfsi.o)
 .debug_frame   0x00002d5c       0x2c c:/program files (x86)/cypress/psoc creator/4.4/psoc creator/import/gnu/arm/5.4.1/bin/../lib/gcc/arm-none-eabi/5.4.1/armv6-m\libgcc.a(floatunsidf.o)
 .debug_frame   0x00002d88       0x2c c:/program files (x86)/cypress/psoc creator/4.4/psoc creator/import/gnu/arm/5.4.1/bin/../lib/gcc/arm-none-eabi/5.4.1/armv6-m\libgcc.a(extendsfdf2.o)
 .debug_frame   0x00002db4       0x2c c:/program files (x86)/cypress/psoc creator/4.4/psoc creator/import/gnu/arm/5.4.1/bin/../lib/gcc/arm-none-eabi/5.4.1/armv6-m\libgcc.a(truncdfsf2.o)
 .debug_frame   0x00002de0       0x28 c:/program files (x86)/cypress/psoc creator/4.4/psoc creator/import/gnu/arm/5.4.1/bin/../lib/gcc/arm-none-eabi/5.4.1/../../../../arm-none-eabi/lib/armv6-m\libg_nano.a(lib_a-atof.o)
 .debug_frame   0x00002e08       0x20 c:/program files (x86)/cypress/psoc creator/4.4/psoc creator/import/gnu/arm/5.4.1/bin/../lib/gcc/arm-none-eabi/5.4.1/../../../../arm-none-eabi/lib/armv6-m\libg_nano.a(lib_a-errno.o)
 .debug_frame   0x00002e28       0x28 c:/program files (x86)/cypress/psoc creator/4.4/psoc creator/import/gnu/arm/5.4.1/bin/../lib/gcc/arm-none-eabi/5.4.1/../../../../arm-none-eabi/lib/armv6-m\libg_nano.a(lib_a-exit.o)
 .debug_frame   0x00002e50       0x2c c:/program files (x86)/cypress/psoc creator/4.4/psoc creator/import/gnu/arm/5.4.1/bin/../lib/gcc/arm-none-eabi/5.4.1/../../../../arm-none-eabi/lib/armv6-m\libg_nano.a(lib_a-init.o)
 .debug_frame   0x00002e7c       0x28 c:/program files (x86)/cypress/psoc creator/4.4/psoc creator/import/gnu/arm/5.4.1/bin/../lib/gcc/arm-none-eabi/5.4.1/../../../../arm-none-eabi/lib/armv6-m\libg_nano.a(lib_a-memcpy-stub.o)
 .debug_frame   0x00002ea4       0x20 c:/program files (x86)/cypress/psoc creator/4.4/psoc creator/import/gnu/arm/5.4.1/bin/../lib/gcc/arm-none-eabi/5.4.1/../../../../arm-none-eabi/lib/armv6-m\libg_nano.a(lib_a-memset.o)
 .debug_frame   0x00002ec4       0x50 c:/program files (x86)/cypress/psoc creator/4.4/psoc creator/import/gnu/arm/5.4.1/bin/../lib/gcc/arm-none-eabi/5.4.1/../../../../arm-none-eabi/lib/armv6-m\libg_nano.a(lib_a-printf.o)
 .debug_frame   0x00002f14       0x48 c:/program files (x86)/cypress/psoc creator/4.4/psoc creator/import/gnu/arm/5.4.1/bin/../lib/gcc/arm-none-eabi/5.4.1/../../../../arm-none-eabi/lib/armv6-m\libg_nano.a(lib_a-putchar.o)
 .debug_frame   0x00002f5c       0x44 c:/program files (x86)/cypress/psoc creator/4.4/psoc creator/import/gnu/arm/5.4.1/bin/../lib/gcc/arm-none-eabi/5.4.1/../../../../arm-none-eabi/lib/armv6-m\libg_nano.a(lib_a-puts.o)
 .debug_frame   0x00002fa0       0x84 c:/program files (x86)/cypress/psoc creator/4.4/psoc creator/import/gnu/arm/5.4.1/bin/../lib/gcc/arm-none-eabi/5.4.1/../../../../arm-none-eabi/lib/armv6-m\libg_nano.a(lib_a-strtod.o)
 .debug_frame   0x00003024       0x48 c:/program files (x86)/cypress/psoc creator/4.4/psoc creator/import/gnu/arm/5.4.1/bin/../lib/gcc/arm-none-eabi/5.4.1/../../../../arm-none-eabi/lib/armv6-m\libg_nano.a(lib_a-wbuf.o)
 .debug_frame   0x0000306c       0x2c c:/program files (x86)/cypress/psoc creator/4.4/psoc creator/import/gnu/arm/5.4.1/bin/../lib/gcc/arm-none-eabi/5.4.1/../../../../arm-none-eabi/lib/armv6-m\libg_nano.a(lib_a-wsetup.o)
 .debug_frame   0x00003098       0x68 c:/program files (x86)/cypress/psoc creator/4.4/psoc creator/import/gnu/arm/5.4.1/bin/../lib/gcc/arm-none-eabi/5.4.1/../../../../arm-none-eabi/lib/armv6-m\libg_nano.a(lib_a-fflush.o)
 .debug_frame   0x00003100      0x140 c:/program files (x86)/cypress/psoc creator/4.4/psoc creator/import/gnu/arm/5.4.1/bin/../lib/gcc/arm-none-eabi/5.4.1/../../../../arm-none-eabi/lib/armv6-m\libg_nano.a(lib_a-findfp.o)
 .debug_frame   0x00003240       0x58 c:/program files (x86)/cypress/psoc creator/4.4/psoc creator/import/gnu/arm/5.4.1/bin/../lib/gcc/arm-none-eabi/5.4.1/../../../../arm-none-eabi/lib/armv6-m\libg_nano.a(lib_a-fwalk.o)
 .debug_frame   0x00003298       0x60 c:/program files (x86)/cypress/psoc creator/4.4/psoc creator/import/gnu/arm/5.4.1/bin/../lib/gcc/arm-none-eabi/5.4.1/../../../../arm-none-eabi/lib/armv6-m\libg_nano.a(lib_a-gdtoa-gethex.o)
 .debug_frame   0x000032f8       0x68 c:/program files (x86)/cypress/psoc creator/4.4/psoc creator/import/gnu/arm/5.4.1/bin/../lib/gcc/arm-none-eabi/5.4.1/../../../../arm-none-eabi/lib/armv6-m\libg_nano.a(lib_a-gdtoa-hexnan.o)
 .debug_frame   0x00003360       0xa4 c:/program files (x86)/cypress/psoc creator/4.4/psoc creator/import/gnu/arm/5.4.1/bin/../lib/gcc/arm-none-eabi/5.4.1/../../../../arm-none-eabi/lib/armv6-m\libg_nano.a(lib_a-locale.o)
 .debug_frame   0x00003404       0x54 c:/program files (x86)/cypress/psoc creator/4.4/psoc creator/import/gnu/arm/5.4.1/bin/../lib/gcc/arm-none-eabi/5.4.1/../../../../arm-none-eabi/lib/armv6-m\libg_nano.a(lib_a-makebuf.o)
 .debug_frame   0x00003458      0x238 c:/program files (x86)/cypress/psoc creator/4.4/psoc creator/import/gnu/arm/5.4.1/bin/../lib/gcc/arm-none-eabi/5.4.1/../../../../arm-none-eabi/lib/armv6-m\libg_nano.a(lib_a-mprec.o)
 .debug_frame   0x00003690       0x2c c:/program files (x86)/cypress/psoc creator/4.4/psoc creator/import/gnu/arm/5.4.1/bin/../lib/gcc/arm-none-eabi/5.4.1/../../../../arm-none-eabi/lib/armv6-m\libg_nano.a(lib_a-nano-callocr.o)
 .debug_frame   0x000036bc       0x2c c:/program files (x86)/cypress/psoc creator/4.4/psoc creator/import/gnu/arm/5.4.1/bin/../lib/gcc/arm-none-eabi/5.4.1/../../../../arm-none-eabi/lib/armv6-m\libg_nano.a(lib_a-nano-freer.o)
 .debug_frame   0x000036e8       0x2c c:/program files (x86)/cypress/psoc creator/4.4/psoc creator/import/gnu/arm/5.4.1/bin/../lib/gcc/arm-none-eabi/5.4.1/../../../../arm-none-eabi/lib/armv6-m\libg_nano.a(lib_a-nano-mallocr.o)
 .debug_frame   0x00003714       0x9c c:/program files (x86)/cypress/psoc creator/4.4/psoc creator/import/gnu/arm/5.4.1/bin/../lib/gcc/arm-none-eabi/5.4.1/../../../../arm-none-eabi/lib/armv6-m\libg_nano.a(lib_a-nano-vfprintf.o)
 .debug_frame   0x000037b0       0x54 c:/program files (x86)/cypress/psoc creator/4.4/psoc creator/import/gnu/arm/5.4.1/bin/../lib/gcc/arm-none-eabi/5.4.1/../../../../arm-none-eabi/lib/armv6-m\libg_nano.a(lib_a-nano-vfprintf_i.o)
 .debug_frame   0x00003804       0x44 c:/program files (x86)/cypress/psoc creator/4.4/psoc creator/import/gnu/arm/5.4.1/bin/../lib/gcc/arm-none-eabi/5.4.1/../../../../arm-none-eabi/lib/armv6-m\libg_nano.a(lib_a-putc.o)
 .debug_frame   0x00003848       0x2c c:/program files (x86)/cypress/psoc creator/4.4/psoc creator/import/gnu/arm/5.4.1/bin/../lib/gcc/arm-none-eabi/5.4.1/../../../../arm-none-eabi/lib/armv6-m\libg_nano.a(lib_a-sbrkr.o)
 .debug_frame   0x00003874       0x20 c:/program files (x86)/cypress/psoc creator/4.4/psoc creator/import/gnu/arm/5.4.1/bin/../lib/gcc/arm-none-eabi/5.4.1/../../../../arm-none-eabi/lib/armv6-m\libg_nano.a(lib_a-sf_nan.o)
 .debug_frame   0x00003894       0x90 c:/program files (x86)/cypress/psoc creator/4.4/psoc creator/import/gnu/arm/5.4.1/bin/../lib/gcc/arm-none-eabi/5.4.1/../../../../arm-none-eabi/lib/armv6-m\libg_nano.a(lib_a-stdio.o)
 .debug_frame   0x00003924       0x20 c:/program files (x86)/cypress/psoc creator/4.4/psoc creator/import/gnu/arm/5.4.1/bin/../lib/gcc/arm-none-eabi/5.4.1/../../../../arm-none-eabi/lib/armv6-m\libg_nano.a(lib_a-strcmp.o)
 .debug_frame   0x00003944       0x2c c:/program files (x86)/cypress/psoc creator/4.4/psoc creator/import/gnu/arm/5.4.1/bin/../lib/gcc/arm-none-eabi/5.4.1/../../../../arm-none-eabi/lib/armv6-m\libg_nano.a(lib_a-strncmp.o)
 .debug_frame   0x00003970       0x2c c:/program files (x86)/cypress/psoc creator/4.4/psoc creator/import/gnu/arm/5.4.1/bin/../lib/gcc/arm-none-eabi/5.4.1/../../../../arm-none-eabi/lib/armv6-m\libg_nano.a(lib_a-writer.o)
 .debug_frame   0x0000399c       0x2c c:/program files (x86)/cypress/psoc creator/4.4/psoc creator/import/gnu/arm/5.4.1/bin/../lib/gcc/arm-none-eabi/5.4.1/../../../../arm-none-eabi/lib/armv6-m\libg_nano.a(lib_a-closer.o)
 .debug_frame   0x000039c8       0x2c c:/program files (x86)/cypress/psoc creator/4.4/psoc creator/import/gnu/arm/5.4.1/bin/../lib/gcc/arm-none-eabi/5.4.1/../../../../arm-none-eabi/lib/armv6-m\libg_nano.a(lib_a-fstatr.o)
 .debug_frame   0x000039f4       0x30 c:/program files (x86)/cypress/psoc creator/4.4/psoc creator/import/gnu/arm/5.4.1/bin/../lib/gcc/arm-none-eabi/5.4.1/../../../../arm-none-eabi/lib/armv6-m\libg_nano.a(lib_a-fvwrite.o)
 .debug_frame   0x00003a24       0x2c c:/program files (x86)/cypress/psoc creator/4.4/psoc creator/import/gnu/arm/5.4.1/bin/../lib/gcc/arm-none-eabi/5.4.1/../../../../arm-none-eabi/lib/armv6-m\libg_nano.a(lib_a-isattyr.o)
 .debug_frame   0x00003a50       0x2c c:/program files (x86)/cypress/psoc creator/4.4/psoc creator/import/gnu/arm/5.4.1/bin/../lib/gcc/arm-none-eabi/5.4.1/../../../../arm-none-eabi/lib/armv6-m\libg_nano.a(lib_a-lseekr.o)
 .debug_frame   0x00003a7c       0x40 c:/program files (x86)/cypress/psoc creator/4.4/psoc creator/import/gnu/arm/5.4.1/bin/../lib/gcc/arm-none-eabi/5.4.1/../../../../arm-none-eabi/lib/armv6-m\libg_nano.a(lib_a-malloc.o)
 .debug_frame   0x00003abc       0x20 c:/program files (x86)/cypress/psoc creator/4.4/psoc creator/import/gnu/arm/5.4.1/bin/../lib/gcc/arm-none-eabi/5.4.1/../../../../arm-none-eabi/lib/armv6-m\libg_nano.a(lib_a-memchr-stub.o)
 .debug_frame   0x00003adc       0x28 c:/program files (x86)/cypress/psoc creator/4.4/psoc creator/import/gnu/arm/5.4.1/bin/../lib/gcc/arm-none-eabi/5.4.1/../../../../arm-none-eabi/lib/armv6-m\libg_nano.a(lib_a-memmove.o)
 .debug_frame   0x00003b04       0x30 c:/program files (x86)/cypress/psoc creator/4.4/psoc creator/import/gnu/arm/5.4.1/bin/../lib/gcc/arm-none-eabi/5.4.1/../../../../arm-none-eabi/lib/armv6-m\libg_nano.a(lib_a-mlock.o)
 .debug_frame   0x00003b34       0x30 c:/program files (x86)/cypress/psoc creator/4.4/psoc creator/import/gnu/arm/5.4.1/bin/../lib/gcc/arm-none-eabi/5.4.1/../../../../arm-none-eabi/lib/armv6-m\libg_nano.a(lib_a-nano-reallocr.o)
 .debug_frame   0x00003b64       0x2c c:/program files (x86)/cypress/psoc creator/4.4/psoc creator/import/gnu/arm/5.4.1/bin/../lib/gcc/arm-none-eabi/5.4.1/../../../../arm-none-eabi/lib/armv6-m\libg_nano.a(lib_a-readr.o)
 .debug_frame   0x00003b90       0x48 c:/program files (x86)/cypress/psoc creator/4.4/psoc creator/import/gnu/arm/5.4.1/bin/../lib/gcc/arm-none-eabi/5.4.1/../../../../arm-none-eabi/lib/armv6-m\libg_nano.a(lib_a-reent.o)
 .debug_frame   0x00003bd8       0x20 c:/program files (x86)/cypress/psoc creator/4.4/psoc creator/import/gnu/arm/5.4.1/bin/../lib/gcc/arm-none-eabi/5.4.1/../../../../arm-none-eabi/lib/armv6-m\libg_nano.a(lib_a-nano-msizer.o)
 .debug_frame   0x00003bf8       0x3c c:/program files (x86)/cypress/psoc creator/4.4/psoc creator/import/gnu/arm/5.4.1/bin/../lib/gcc/arm-none-eabi/5.4.1/armv6-m\libgcc.a(adddf3.o)
 .debug_frame   0x00003c34       0x2c c:/program files (x86)/cypress/psoc creator/4.4/psoc creator/import/gnu/arm/5.4.1/bin/../lib/gcc/arm-none-eabi/5.4.1/armv6-m\libgcc.a(unorddf2.o)
 .debug_frame   0x00003c60       0x2c c:/program files (x86)/cypress/psoc creator/4.4/psoc creator/import/gnu/arm/5.4.1/bin/../lib/gcc/arm-none-eabi/5.4.1/armv6-m\libgcc.a(floatsidf.o)
 .debug_frame   0x00003c8c       0x20 c:/program files (x86)/cypress/psoc creator/4.4/psoc creator/import/gnu/arm/5.4.1/bin/../lib/gcc/arm-none-eabi/5.4.1/../../../../arm-none-eabi/lib/armv6-m\libnosys.a(close.o)
 .debug_frame   0x00003cac       0x20 c:/program files (x86)/cypress/psoc creator/4.4/psoc creator/import/gnu/arm/5.4.1/bin/../lib/gcc/arm-none-eabi/5.4.1/../../../../arm-none-eabi/lib/armv6-m\libnosys.a(fstat.o)
 .debug_frame   0x00003ccc       0x20 c:/program files (x86)/cypress/psoc creator/4.4/psoc creator/import/gnu/arm/5.4.1/bin/../lib/gcc/arm-none-eabi/5.4.1/../../../../arm-none-eabi/lib/armv6-m\libnosys.a(isatty.o)
 .debug_frame   0x00003cec       0x20 c:/program files (x86)/cypress/psoc creator/4.4/psoc creator/import/gnu/arm/5.4.1/bin/../lib/gcc/arm-none-eabi/5.4.1/../../../../arm-none-eabi/lib/armv6-m\libnosys.a(lseek.o)
 .debug_frame   0x00003d0c       0x20 c:/program files (x86)/cypress/psoc creator/4.4/psoc creator/import/gnu/arm/5.4.1/bin/../lib/gcc/arm-none-eabi/5.4.1/../../../../arm-none-eabi/lib/armv6-m\libnosys.a(read.o)

.debug_str      0x00000000     0x3064
 *(.debug_str)
 .debug_str     0x00000000      0x7f6 .\CortexM0\ARM_GCC_541\Debug\main.o
                                0x891 (size before relaxing)
 .debug_str     0x000007f6      0x12b .\CortexM0\ARM_GCC_541\Debug\cyfitter_cfg.o
                                0x2fc (size before relaxing)
 .debug_str     0x00000921       0x59 .\CortexM0\ARM_GCC_541\Debug\cymetadata.o
                                0x1e8 (size before relaxing)
 .debug_str     0x0000097a      0x135 .\CortexM0\ARM_GCC_541\Debug\Cm0Start.o
                                0x321 (size before relaxing)
 .debug_str     0x00000aaf       0x9e .\CortexM0\ARM_GCC_541\Debug\BLDC Motor.a(INHA.o)
                                0x24f (size before relaxing)
 .debug_str     0x00000b4d       0x75 .\CortexM0\ARM_GCC_541\Debug\BLDC Motor.a(INHB.o)
                                0x24f (size before relaxing)
 .debug_str     0x00000bc2       0x75 .\CortexM0\ARM_GCC_541\Debug\BLDC Motor.a(INHC.o)
                                0x24f (size before relaxing)
 .debug_str     0x00000c37      0x5fd .\CortexM0\ARM_GCC_541\Debug\BLDC Motor.a(CyLib.o)
                                0x81d (size before relaxing)
 .debug_str     0x00001234      0x6eb .\CortexM0\ARM_GCC_541\Debug\BLDC Motor.a(CyLFClk.o)
                                0x93d (size before relaxing)
 .debug_str     0x0000191f      0x392 .\CortexM0\ARM_GCC_541\Debug\BLDC Motor.a(PWM_A.o)
                                0x5d1 (size before relaxing)
 .debug_str     0x00001cb1      0x2da .\CortexM0\ARM_GCC_541\Debug\BLDC Motor.a(PWM_B.o)
                                0x5d1 (size before relaxing)
 .debug_str     0x00001f8b      0x2da .\CortexM0\ARM_GCC_541\Debug\BLDC Motor.a(PWM_C.o)
                                0x5d1 (size before relaxing)
 .debug_str     0x00002265       0x53 .\CortexM0\ARM_GCC_541\Debug\BLDC Motor.a(u.o)
                                0x23a (size before relaxing)
 .debug_str     0x000022b8       0x53 .\CortexM0\ARM_GCC_541\Debug\BLDC Motor.a(v.o)
                                0x23a (size before relaxing)
 .debug_str     0x0000230b       0x53 .\CortexM0\ARM_GCC_541\Debug\BLDC Motor.a(w.o)
                                0x23a (size before relaxing)
 .debug_str     0x0000235e       0xf7 .\CortexM0\ARM_GCC_541\Debug\BLDC Motor.a(UART.o)
                                0x2b7 (size before relaxing)
 .debug_str     0x00002455      0x11d .\CortexM0\ARM_GCC_541\Debug\BLDC Motor.a(UART_SPI_UART.o)
                                0x2ee (size before relaxing)
 .debug_str     0x00002572      0x188 .\CortexM0\ARM_GCC_541\Debug\BLDC Motor.a(UART_UART.o)
                                0x3e8 (size before relaxing)
 .debug_str     0x000026fa       0x75 .\CortexM0\ARM_GCC_541\Debug\BLDC Motor.a(CTRL.o)
                                0x24f (size before relaxing)
 .debug_str     0x0000276f      0x1c8 .\CortexM0\ARM_GCC_541\Debug\BLDC Motor.a(Counter_micros.o)
                                0x423 (size before relaxing)
 .debug_str     0x00002937      0x128 .\CortexM0\ARM_GCC_541\Debug\BLDC Motor.a(isr_millis.o)
                                0x350 (size before relaxing)
 .debug_str     0x00002a5f       0xe5 .\CortexM0\ARM_GCC_541\Debug\BLDC Motor.a(isr_uf.o)
                                0x318 (size before relaxing)
 .debug_str     0x00002b44       0xe5 .\CortexM0\ARM_GCC_541\Debug\BLDC Motor.a(isr_vf.o)
                                0x318 (size before relaxing)
 .debug_str     0x00002c29       0xe5 .\CortexM0\ARM_GCC_541\Debug\BLDC Motor.a(isr_wf.o)
                                0x318 (size before relaxing)
 .debug_str     0x00002d0e       0xe5 .\CortexM0\ARM_GCC_541\Debug\BLDC Motor.a(isr_wr.o)
                                0x318 (size before relaxing)
 .debug_str     0x00002df3       0xe5 .\CortexM0\ARM_GCC_541\Debug\BLDC Motor.a(isr_vr.o)
                                0x318 (size before relaxing)
 .debug_str     0x00002ed8       0xe5 .\CortexM0\ARM_GCC_541\Debug\BLDC Motor.a(isr_ur.o)
                                0x318 (size before relaxing)
 .debug_str     0x00002fbd       0xa7 .\CortexM0\ARM_GCC_541\Debug\BLDC Motor.a(CyFlash.o)
                                0x2d0 (size before relaxing)

.debug_loc      0x00000000     0x3e78
 *(.debug_loc)
 .debug_loc     0x00000000      0x9ba .\CortexM0\ARM_GCC_541\Debug\main.o
 .debug_loc     0x000009ba      0x118 .\CortexM0\ARM_GCC_541\Debug\cyfitter_cfg.o
 .debug_loc     0x00000ad2      0x14f .\CortexM0\ARM_GCC_541\Debug\Cm0Start.o
 .debug_loc     0x00000c21       0xa2 .\CortexM0\ARM_GCC_541\Debug\BLDC Motor.a(INHA.o)
 .debug_loc     0x00000cc3       0xa2 .\CortexM0\ARM_GCC_541\Debug\BLDC Motor.a(INHB.o)
 .debug_loc     0x00000d65       0xa2 .\CortexM0\ARM_GCC_541\Debug\BLDC Motor.a(INHC.o)
 .debug_loc     0x00000e07      0x81c .\CortexM0\ARM_GCC_541\Debug\BLDC Motor.a(CyLib.o)
 .debug_loc     0x00001623      0xdb7 .\CortexM0\ARM_GCC_541\Debug\BLDC Motor.a(CyLFClk.o)
 .debug_loc     0x000023da      0x547 .\CortexM0\ARM_GCC_541\Debug\BLDC Motor.a(PWM_A.o)
 .debug_loc     0x00002921      0x547 .\CortexM0\ARM_GCC_541\Debug\BLDC Motor.a(PWM_B.o)
 .debug_loc     0x00002e68      0x547 .\CortexM0\ARM_GCC_541\Debug\BLDC Motor.a(PWM_C.o)
 .debug_loc     0x000033af       0xa2 .\CortexM0\ARM_GCC_541\Debug\BLDC Motor.a(u.o)
 .debug_loc     0x00003451       0xa2 .\CortexM0\ARM_GCC_541\Debug\BLDC Motor.a(v.o)
 .debug_loc     0x000034f3       0x81 .\CortexM0\ARM_GCC_541\Debug\BLDC Motor.a(w.o)
 .debug_loc     0x00003574       0x7e .\CortexM0\ARM_GCC_541\Debug\BLDC Motor.a(UART.o)
 .debug_loc     0x000035f2       0x96 .\CortexM0\ARM_GCC_541\Debug\BLDC Motor.a(UART_SPI_UART.o)
 .debug_loc     0x00003688      0x223 .\CortexM0\ARM_GCC_541\Debug\BLDC Motor.a(UART_UART.o)
 .debug_loc     0x000038ab       0xa2 .\CortexM0\ARM_GCC_541\Debug\BLDC Motor.a(CTRL.o)
 .debug_loc     0x0000394d       0x3d .\CortexM0\ARM_GCC_541\Debug\BLDC Motor.a(Counter_micros.o)
 .debug_loc     0x0000398a       0x82 .\CortexM0\ARM_GCC_541\Debug\BLDC Motor.a(isr_millis.o)
 .debug_loc     0x00003a0c       0x82 .\CortexM0\ARM_GCC_541\Debug\BLDC Motor.a(isr_uf.o)
 .debug_loc     0x00003a8e       0x82 .\CortexM0\ARM_GCC_541\Debug\BLDC Motor.a(isr_vf.o)
 .debug_loc     0x00003b10       0x82 .\CortexM0\ARM_GCC_541\Debug\BLDC Motor.a(isr_wf.o)
 .debug_loc     0x00003b92       0x82 .\CortexM0\ARM_GCC_541\Debug\BLDC Motor.a(isr_wr.o)
 .debug_loc     0x00003c14       0x82 .\CortexM0\ARM_GCC_541\Debug\BLDC Motor.a(isr_vr.o)
 .debug_loc     0x00003c96       0x82 .\CortexM0\ARM_GCC_541\Debug\BLDC Motor.a(isr_ur.o)
 .debug_loc     0x00003d18      0x160 .\CortexM0\ARM_GCC_541\Debug\BLDC Motor.a(CyFlash.o)

.debug_macinfo
 *(.debug_macinfo)

.debug_ranges   0x00000000      0xf40
 *(.debug_ranges)
 .debug_ranges  0x00000000      0x168 .\CortexM0\ARM_GCC_541\Debug\main.o
 .debug_ranges  0x00000168       0x30 .\CortexM0\ARM_GCC_541\Debug\cyfitter_cfg.o
 .debug_ranges  0x00000198       0x38 .\CortexM0\ARM_GCC_541\Debug\Cm0Start.o
 .debug_ranges  0x000001d0       0x38 .\CortexM0\ARM_GCC_541\Debug\BLDC Motor.a(INHA.o)
 .debug_ranges  0x00000208       0x38 .\CortexM0\ARM_GCC_541\Debug\BLDC Motor.a(INHB.o)
 .debug_ranges  0x00000240       0x38 .\CortexM0\ARM_GCC_541\Debug\BLDC Motor.a(INHC.o)
 .debug_ranges  0x00000278      0x1b8 .\CortexM0\ARM_GCC_541\Debug\BLDC Motor.a(CyLib.o)
 .debug_ranges  0x00000430      0x178 .\CortexM0\ARM_GCC_541\Debug\BLDC Motor.a(CyLFClk.o)
 .debug_ranges  0x000005a8      0x148 .\CortexM0\ARM_GCC_541\Debug\BLDC Motor.a(PWM_A.o)
 .debug_ranges  0x000006f0      0x148 .\CortexM0\ARM_GCC_541\Debug\BLDC Motor.a(PWM_B.o)
 .debug_ranges  0x00000838      0x148 .\CortexM0\ARM_GCC_541\Debug\BLDC Motor.a(PWM_C.o)
 .debug_ranges  0x00000980       0x38 .\CortexM0\ARM_GCC_541\Debug\BLDC Motor.a(u.o)
 .debug_ranges  0x000009b8       0x38 .\CortexM0\ARM_GCC_541\Debug\BLDC Motor.a(v.o)
 .debug_ranges  0x000009f0       0x38 .\CortexM0\ARM_GCC_541\Debug\BLDC Motor.a(w.o)
 .debug_ranges  0x00000a28       0x48 .\CortexM0\ARM_GCC_541\Debug\BLDC Motor.a(UART.o)
 .debug_ranges  0x00000a70       0x50 .\CortexM0\ARM_GCC_541\Debug\BLDC Motor.a(UART_SPI_UART.o)
 .debug_ranges  0x00000ac0       0x80 .\CortexM0\ARM_GCC_541\Debug\BLDC Motor.a(UART_UART.o)
 .debug_ranges  0x00000b40       0x38 .\CortexM0\ARM_GCC_541\Debug\BLDC Motor.a(CTRL.o)
 .debug_ranges  0x00000b78       0x88 .\CortexM0\ARM_GCC_541\Debug\BLDC Motor.a(Counter_micros.o)
 .debug_ranges  0x00000c00       0x70 .\CortexM0\ARM_GCC_541\Debug\BLDC Motor.a(isr_millis.o)
 .debug_ranges  0x00000c70       0x70 .\CortexM0\ARM_GCC_541\Debug\BLDC Motor.a(isr_uf.o)
 .debug_ranges  0x00000ce0       0x70 .\CortexM0\ARM_GCC_541\Debug\BLDC Motor.a(isr_vf.o)
 .debug_ranges  0x00000d50       0x70 .\CortexM0\ARM_GCC_541\Debug\BLDC Motor.a(isr_wf.o)
 .debug_ranges  0x00000dc0       0x70 .\CortexM0\ARM_GCC_541\Debug\BLDC Motor.a(isr_wr.o)
 .debug_ranges  0x00000e30       0x70 .\CortexM0\ARM_GCC_541\Debug\BLDC Motor.a(isr_vr.o)
 .debug_ranges  0x00000ea0       0x70 .\CortexM0\ARM_GCC_541\Debug\BLDC Motor.a(isr_ur.o)
 .debug_ranges  0x00000f10       0x30 .\CortexM0\ARM_GCC_541\Debug\BLDC Motor.a(CyFlash.o)

.comment        0x00000000       0x6e
 .comment       0x00000000       0x6e .\CortexM0\ARM_GCC_541\Debug\main.o
                                 0x6f (size before relaxing)
 .comment       0x0000006e       0x6f .\CortexM0\ARM_GCC_541\Debug\cyfitter_cfg.o
 .comment       0x0000006e       0x6f .\CortexM0\ARM_GCC_541\Debug\cymetadata.o
 .comment       0x0000006e       0x6f .\CortexM0\ARM_GCC_541\Debug\Cm0Start.o
 .comment       0x0000006e       0x6f .\CortexM0\ARM_GCC_541\Debug\BLDC Motor.a(INHA.o)
 .comment       0x0000006e       0x6f .\CortexM0\ARM_GCC_541\Debug\BLDC Motor.a(INHB.o)
 .comment       0x0000006e       0x6f .\CortexM0\ARM_GCC_541\Debug\BLDC Motor.a(INHC.o)
 .comment       0x0000006e       0x6f .\CortexM0\ARM_GCC_541\Debug\BLDC Motor.a(CyLib.o)
 .comment       0x0000006e       0x6f .\CortexM0\ARM_GCC_541\Debug\BLDC Motor.a(CyLFClk.o)
 .comment       0x0000006e       0x6f .\CortexM0\ARM_GCC_541\Debug\BLDC Motor.a(PWM_A.o)
 .comment       0x0000006e       0x6f .\CortexM0\ARM_GCC_541\Debug\BLDC Motor.a(PWM_B.o)
 .comment       0x0000006e       0x6f .\CortexM0\ARM_GCC_541\Debug\BLDC Motor.a(PWM_C.o)
 .comment       0x0000006e       0x6f .\CortexM0\ARM_GCC_541\Debug\BLDC Motor.a(u.o)
 .comment       0x0000006e       0x6f .\CortexM0\ARM_GCC_541\Debug\BLDC Motor.a(v.o)
 .comment       0x0000006e       0x6f .\CortexM0\ARM_GCC_541\Debug\BLDC Motor.a(w.o)
 .comment       0x0000006e       0x6f .\CortexM0\ARM_GCC_541\Debug\BLDC Motor.a(UART.o)
 .comment       0x0000006e       0x6f .\CortexM0\ARM_GCC_541\Debug\BLDC Motor.a(UART_SPI_UART.o)
 .comment       0x0000006e       0x6f .\CortexM0\ARM_GCC_541\Debug\BLDC Motor.a(UART_UART.o)
 .comment       0x0000006e       0x6f .\CortexM0\ARM_GCC_541\Debug\BLDC Motor.a(CTRL.o)
 .comment       0x0000006e       0x6f .\CortexM0\ARM_GCC_541\Debug\BLDC Motor.a(Counter_micros.o)
 .comment       0x0000006e       0x6f .\CortexM0\ARM_GCC_541\Debug\BLDC Motor.a(isr_millis.o)
 .comment       0x0000006e       0x6f .\CortexM0\ARM_GCC_541\Debug\BLDC Motor.a(isr_uf.o)
 .comment       0x0000006e       0x6f .\CortexM0\ARM_GCC_541\Debug\BLDC Motor.a(isr_vf.o)
 .comment       0x0000006e       0x6f .\CortexM0\ARM_GCC_541\Debug\BLDC Motor.a(isr_wf.o)
 .comment       0x0000006e       0x6f .\CortexM0\ARM_GCC_541\Debug\BLDC Motor.a(isr_wr.o)
 .comment       0x0000006e       0x6f .\CortexM0\ARM_GCC_541\Debug\BLDC Motor.a(isr_vr.o)
 .comment       0x0000006e       0x6f .\CortexM0\ARM_GCC_541\Debug\BLDC Motor.a(isr_ur.o)
 .comment       0x0000006e       0x6f .\CortexM0\ARM_GCC_541\Debug\BLDC Motor.a(CyFlash.o)

.debug_weaknames
 *(.debug_weaknames)

.debug_funcnames
 *(.debug_funcnames)

.debug_typenames
 *(.debug_typenames)

.debug_varnames
 *(.debug_varnames)

.note.gnu.arm.ident
 *(.note.gnu.arm.ident)

.ARM.attributes
                0x00000000       0x28
 *(.ARM.attributes)
 .ARM.attributes
                0x00000000       0x1e c:/program files (x86)/cypress/psoc creator/4.4/psoc creator/import/gnu/arm/5.4.1/bin/../lib/gcc/arm-none-eabi/5.4.1/armv6-m/crti.o
 .ARM.attributes
                0x0000001e       0x2c c:/program files (x86)/cypress/psoc creator/4.4/psoc creator/import/gnu/arm/5.4.1/bin/../lib/gcc/arm-none-eabi/5.4.1/armv6-m/crtbegin.o
 .ARM.attributes
                0x0000004a       0x1b c:/program files (x86)/cypress/psoc creator/4.4/psoc creator/import/gnu/arm/5.4.1/bin/../lib/gcc/arm-none-eabi/5.4.1/../../../../arm-none-eabi/lib/armv6-m/crt0.o
 .ARM.attributes
                0x00000065       0x31 .\CortexM0\ARM_GCC_541\Debug\main.o
 .ARM.attributes
                0x00000096       0x31 .\CortexM0\ARM_GCC_541\Debug\cyfitter_cfg.o
 .ARM.attributes
                0x000000c7       0x31 .\CortexM0\ARM_GCC_541\Debug\cymetadata.o
 .ARM.attributes
                0x000000f8       0x31 .\CortexM0\ARM_GCC_541\Debug\Cm0Start.o
 .ARM.attributes
                0x00000129       0x31 .\CortexM0\ARM_GCC_541\Debug\BLDC Motor.a(INHA.o)
 .ARM.attributes
                0x0000015a       0x31 .\CortexM0\ARM_GCC_541\Debug\BLDC Motor.a(INHB.o)
 .ARM.attributes
                0x0000018b       0x31 .\CortexM0\ARM_GCC_541\Debug\BLDC Motor.a(INHC.o)
 .ARM.attributes
                0x000001bc       0x31 .\CortexM0\ARM_GCC_541\Debug\BLDC Motor.a(CyLib.o)
 .ARM.attributes
                0x000001ed       0x31 .\CortexM0\ARM_GCC_541\Debug\BLDC Motor.a(CyLFClk.o)
 .ARM.attributes
                0x0000021e       0x31 .\CortexM0\ARM_GCC_541\Debug\BLDC Motor.a(PWM_A.o)
 .ARM.attributes
                0x0000024f       0x31 .\CortexM0\ARM_GCC_541\Debug\BLDC Motor.a(PWM_B.o)
 .ARM.attributes
                0x00000280       0x31 .\CortexM0\ARM_GCC_541\Debug\BLDC Motor.a(PWM_C.o)
 .ARM.attributes
                0x000002b1       0x31 .\CortexM0\ARM_GCC_541\Debug\BLDC Motor.a(u.o)
 .ARM.attributes
                0x000002e2       0x31 .\CortexM0\ARM_GCC_541\Debug\BLDC Motor.a(v.o)
 .ARM.attributes
                0x00000313       0x31 .\CortexM0\ARM_GCC_541\Debug\BLDC Motor.a(w.o)
 .ARM.attributes
                0x00000344       0x31 .\CortexM0\ARM_GCC_541\Debug\BLDC Motor.a(UART.o)
 .ARM.attributes
                0x00000375       0x31 .\CortexM0\ARM_GCC_541\Debug\BLDC Motor.a(UART_SPI_UART.o)
 .ARM.attributes
                0x000003a6       0x31 .\CortexM0\ARM_GCC_541\Debug\BLDC Motor.a(UART_UART.o)
 .ARM.attributes
                0x000003d7       0x31 .\CortexM0\ARM_GCC_541\Debug\BLDC Motor.a(CTRL.o)
 .ARM.attributes
                0x00000408       0x31 .\CortexM0\ARM_GCC_541\Debug\BLDC Motor.a(Counter_micros.o)
 .ARM.attributes
                0x00000439       0x31 .\CortexM0\ARM_GCC_541\Debug\BLDC Motor.a(isr_millis.o)
 .ARM.attributes
                0x0000046a       0x31 .\CortexM0\ARM_GCC_541\Debug\BLDC Motor.a(isr_uf.o)
 .ARM.attributes
                0x0000049b       0x31 .\CortexM0\ARM_GCC_541\Debug\BLDC Motor.a(isr_vf.o)
 .ARM.attributes
                0x000004cc       0x31 .\CortexM0\ARM_GCC_541\Debug\BLDC Motor.a(isr_wf.o)
 .ARM.attributes
                0x000004fd       0x31 .\CortexM0\ARM_GCC_541\Debug\BLDC Motor.a(isr_wr.o)
 .ARM.attributes
                0x0000052e       0x31 .\CortexM0\ARM_GCC_541\Debug\BLDC Motor.a(isr_vr.o)
 .ARM.attributes
                0x0000055f       0x31 .\CortexM0\ARM_GCC_541\Debug\BLDC Motor.a(isr_ur.o)
 .ARM.attributes
                0x00000590       0x21 .\CortexM0\ARM_GCC_541\Debug\BLDC Motor.a(CyBootAsmGnu.o)
 .ARM.attributes
                0x000005b1       0x31 .\CortexM0\ARM_GCC_541\Debug\BLDC Motor.a(CyFlash.o)
 .ARM.attributes
                0x000005e2       0x1e c:/program files (x86)/cypress/psoc creator/4.4/psoc creator/import/gnu/arm/5.4.1/bin/../lib/gcc/arm-none-eabi/5.4.1/armv6-m\libgcc.a(_udivsi3.o)
 .ARM.attributes
                0x00000600       0x1e c:/program files (x86)/cypress/psoc creator/4.4/psoc creator/import/gnu/arm/5.4.1/bin/../lib/gcc/arm-none-eabi/5.4.1/armv6-m\libgcc.a(_divsi3.o)
 .ARM.attributes
                0x0000061e       0x1e c:/program files (x86)/cypress/psoc creator/4.4/psoc creator/import/gnu/arm/5.4.1/bin/../lib/gcc/arm-none-eabi/5.4.1/armv6-m\libgcc.a(_dvmd_tls.o)
 .ARM.attributes
                0x0000063c       0x1e c:/program files (x86)/cypress/psoc creator/4.4/psoc creator/import/gnu/arm/5.4.1/bin/../lib/gcc/arm-none-eabi/5.4.1/armv6-m\libgcc.a(_arm_cmpdf2.o)
 .ARM.attributes
                0x0000065a       0x1e c:/program files (x86)/cypress/psoc creator/4.4/psoc creator/import/gnu/arm/5.4.1/bin/../lib/gcc/arm-none-eabi/5.4.1/armv6-m\libgcc.a(_arm_cmpsf2.o)
 .ARM.attributes
                0x00000678       0x2c c:/program files (x86)/cypress/psoc creator/4.4/psoc creator/import/gnu/arm/5.4.1/bin/../lib/gcc/arm-none-eabi/5.4.1/armv6-m\libgcc.a(_fixunssfsi.o)
 .ARM.attributes
                0x000006a4       0x2c c:/program files (x86)/cypress/psoc creator/4.4/psoc creator/import/gnu/arm/5.4.1/bin/../lib/gcc/arm-none-eabi/5.4.1/armv6-m\libgcc.a(_fixunsdfsi.o)
 .ARM.attributes
                0x000006d0       0x2c c:/program files (x86)/cypress/psoc creator/4.4/psoc creator/import/gnu/arm/5.4.1/bin/../lib/gcc/arm-none-eabi/5.4.1/armv6-m\libgcc.a(addsf3.o)
 .ARM.attributes
                0x000006fc       0x2c c:/program files (x86)/cypress/psoc creator/4.4/psoc creator/import/gnu/arm/5.4.1/bin/../lib/gcc/arm-none-eabi/5.4.1/armv6-m\libgcc.a(divsf3.o)
 .ARM.attributes
                0x00000728       0x2c c:/program files (x86)/cypress/psoc creator/4.4/psoc creator/import/gnu/arm/5.4.1/bin/../lib/gcc/arm-none-eabi/5.4.1/armv6-m\libgcc.a(eqsf2.o)
 .ARM.attributes
                0x00000754       0x2c c:/program files (x86)/cypress/psoc creator/4.4/psoc creator/import/gnu/arm/5.4.1/bin/../lib/gcc/arm-none-eabi/5.4.1/armv6-m\libgcc.a(gesf2.o)
 .ARM.attributes
                0x00000780       0x2c c:/program files (x86)/cypress/psoc creator/4.4/psoc creator/import/gnu/arm/5.4.1/bin/../lib/gcc/arm-none-eabi/5.4.1/armv6-m\libgcc.a(lesf2.o)
 .ARM.attributes
                0x000007ac       0x2c c:/program files (x86)/cypress/psoc creator/4.4/psoc creator/import/gnu/arm/5.4.1/bin/../lib/gcc/arm-none-eabi/5.4.1/armv6-m\libgcc.a(mulsf3.o)
 .ARM.attributes
                0x000007d8       0x2c c:/program files (x86)/cypress/psoc creator/4.4/psoc creator/import/gnu/arm/5.4.1/bin/../lib/gcc/arm-none-eabi/5.4.1/armv6-m\libgcc.a(subsf3.o)
 .ARM.attributes
                0x00000804       0x2c c:/program files (x86)/cypress/psoc creator/4.4/psoc creator/import/gnu/arm/5.4.1/bin/../lib/gcc/arm-none-eabi/5.4.1/armv6-m\libgcc.a(fixsfsi.o)
 .ARM.attributes
                0x00000830       0x2c c:/program files (x86)/cypress/psoc creator/4.4/psoc creator/import/gnu/arm/5.4.1/bin/../lib/gcc/arm-none-eabi/5.4.1/armv6-m\libgcc.a(floatsisf.o)
 .ARM.attributes
                0x0000085c       0x2c c:/program files (x86)/cypress/psoc creator/4.4/psoc creator/import/gnu/arm/5.4.1/bin/../lib/gcc/arm-none-eabi/5.4.1/armv6-m\libgcc.a(floatunsisf.o)
 .ARM.attributes
                0x00000888       0x2c c:/program files (x86)/cypress/psoc creator/4.4/psoc creator/import/gnu/arm/5.4.1/bin/../lib/gcc/arm-none-eabi/5.4.1/armv6-m\libgcc.a(divdf3.o)
 .ARM.attributes
                0x000008b4       0x2c c:/program files (x86)/cypress/psoc creator/4.4/psoc creator/import/gnu/arm/5.4.1/bin/../lib/gcc/arm-none-eabi/5.4.1/armv6-m\libgcc.a(eqdf2.o)
 .ARM.attributes
                0x000008e0       0x2c c:/program files (x86)/cypress/psoc creator/4.4/psoc creator/import/gnu/arm/5.4.1/bin/../lib/gcc/arm-none-eabi/5.4.1/armv6-m\libgcc.a(gedf2.o)
 .ARM.attributes
                0x0000090c       0x2c c:/program files (x86)/cypress/psoc creator/4.4/psoc creator/import/gnu/arm/5.4.1/bin/../lib/gcc/arm-none-eabi/5.4.1/armv6-m\libgcc.a(ledf2.o)
 .ARM.attributes
                0x00000938       0x2c c:/program files (x86)/cypress/psoc creator/4.4/psoc creator/import/gnu/arm/5.4.1/bin/../lib/gcc/arm-none-eabi/5.4.1/armv6-m\libgcc.a(muldf3.o)
 .ARM.attributes
                0x00000964       0x2c c:/program files (x86)/cypress/psoc creator/4.4/psoc creator/import/gnu/arm/5.4.1/bin/../lib/gcc/arm-none-eabi/5.4.1/armv6-m\libgcc.a(subdf3.o)
 .ARM.attributes
                0x00000990       0x2c c:/program files (x86)/cypress/psoc creator/4.4/psoc creator/import/gnu/arm/5.4.1/bin/../lib/gcc/arm-none-eabi/5.4.1/armv6-m\libgcc.a(fixdfsi.o)
 .ARM.attributes
                0x000009bc       0x2c c:/program files (x86)/cypress/psoc creator/4.4/psoc creator/import/gnu/arm/5.4.1/bin/../lib/gcc/arm-none-eabi/5.4.1/armv6-m\libgcc.a(floatunsidf.o)
 .ARM.attributes
                0x000009e8       0x2c c:/program files (x86)/cypress/psoc creator/4.4/psoc creator/import/gnu/arm/5.4.1/bin/../lib/gcc/arm-none-eabi/5.4.1/armv6-m\libgcc.a(extendsfdf2.o)
 .ARM.attributes
                0x00000a14       0x2c c:/program files (x86)/cypress/psoc creator/4.4/psoc creator/import/gnu/arm/5.4.1/bin/../lib/gcc/arm-none-eabi/5.4.1/armv6-m\libgcc.a(truncdfsf2.o)
 .ARM.attributes
                0x00000a40       0x1e c:/program files (x86)/cypress/psoc creator/4.4/psoc creator/import/gnu/arm/5.4.1/bin/../lib/gcc/arm-none-eabi/5.4.1/armv6-m\libgcc.a(_clzsi2.o)
 .ARM.attributes
                0x00000a5e       0x2c c:/program files (x86)/cypress/psoc creator/4.4/psoc creator/import/gnu/arm/5.4.1/bin/../lib/gcc/arm-none-eabi/5.4.1/../../../../arm-none-eabi/lib/armv6-m\libg_nano.a(lib_a-atof.o)
 .ARM.attributes
                0x00000a8a       0x2c c:/program files (x86)/cypress/psoc creator/4.4/psoc creator/import/gnu/arm/5.4.1/bin/../lib/gcc/arm-none-eabi/5.4.1/../../../../arm-none-eabi/lib/armv6-m\libg_nano.a(lib_a-errno.o)
 .ARM.attributes
                0x00000ab6       0x2c c:/program files (x86)/cypress/psoc creator/4.4/psoc creator/import/gnu/arm/5.4.1/bin/../lib/gcc/arm-none-eabi/5.4.1/../../../../arm-none-eabi/lib/armv6-m\libg_nano.a(lib_a-exit.o)
 .ARM.attributes
                0x00000ae2       0x2c c:/program files (x86)/cypress/psoc creator/4.4/psoc creator/import/gnu/arm/5.4.1/bin/../lib/gcc/arm-none-eabi/5.4.1/../../../../arm-none-eabi/lib/armv6-m\libg_nano.a(lib_a-impure.o)
 .ARM.attributes
                0x00000b0e       0x2c c:/program files (x86)/cypress/psoc creator/4.4/psoc creator/import/gnu/arm/5.4.1/bin/../lib/gcc/arm-none-eabi/5.4.1/../../../../arm-none-eabi/lib/armv6-m\libg_nano.a(lib_a-init.o)
 .ARM.attributes
                0x00000b3a       0x2c c:/program files (x86)/cypress/psoc creator/4.4/psoc creator/import/gnu/arm/5.4.1/bin/../lib/gcc/arm-none-eabi/5.4.1/../../../../arm-none-eabi/lib/armv6-m\libg_nano.a(lib_a-memcpy-stub.o)
 .ARM.attributes
                0x00000b66       0x2c c:/program files (x86)/cypress/psoc creator/4.4/psoc creator/import/gnu/arm/5.4.1/bin/../lib/gcc/arm-none-eabi/5.4.1/../../../../arm-none-eabi/lib/armv6-m\libg_nano.a(lib_a-memset.o)
 .ARM.attributes
                0x00000b92       0x2c c:/program files (x86)/cypress/psoc creator/4.4/psoc creator/import/gnu/arm/5.4.1/bin/../lib/gcc/arm-none-eabi/5.4.1/../../../../arm-none-eabi/lib/armv6-m\libg_nano.a(lib_a-printf.o)
 .ARM.attributes
                0x00000bbe       0x2c c:/program files (x86)/cypress/psoc creator/4.4/psoc creator/import/gnu/arm/5.4.1/bin/../lib/gcc/arm-none-eabi/5.4.1/../../../../arm-none-eabi/lib/armv6-m\libg_nano.a(lib_a-putchar.o)
 .ARM.attributes
                0x00000bea       0x2c c:/program files (x86)/cypress/psoc creator/4.4/psoc creator/import/gnu/arm/5.4.1/bin/../lib/gcc/arm-none-eabi/5.4.1/../../../../arm-none-eabi/lib/armv6-m\libg_nano.a(lib_a-puts.o)
 .ARM.attributes
                0x00000c16       0x2c c:/program files (x86)/cypress/psoc creator/4.4/psoc creator/import/gnu/arm/5.4.1/bin/../lib/gcc/arm-none-eabi/5.4.1/../../../../arm-none-eabi/lib/armv6-m\libg_nano.a(lib_a-strtod.o)
 .ARM.attributes
                0x00000c42       0x2c c:/program files (x86)/cypress/psoc creator/4.4/psoc creator/import/gnu/arm/5.4.1/bin/../lib/gcc/arm-none-eabi/5.4.1/../../../../arm-none-eabi/lib/armv6-m\libg_nano.a(lib_a-wbuf.o)
 .ARM.attributes
                0x00000c6e       0x2c c:/program files (x86)/cypress/psoc creator/4.4/psoc creator/import/gnu/arm/5.4.1/bin/../lib/gcc/arm-none-eabi/5.4.1/../../../../arm-none-eabi/lib/armv6-m\libg_nano.a(lib_a-wsetup.o)
 .ARM.attributes
                0x00000c9a       0x2c c:/program files (x86)/cypress/psoc creator/4.4/psoc creator/import/gnu/arm/5.4.1/bin/../lib/gcc/arm-none-eabi/5.4.1/../../../../arm-none-eabi/lib/armv6-m\libg_nano.a(lib_a-fflush.o)
 .ARM.attributes
                0x00000cc6       0x2c c:/program files (x86)/cypress/psoc creator/4.4/psoc creator/import/gnu/arm/5.4.1/bin/../lib/gcc/arm-none-eabi/5.4.1/../../../../arm-none-eabi/lib/armv6-m\libg_nano.a(lib_a-findfp.o)
 .ARM.attributes
                0x00000cf2       0x2c c:/program files (x86)/cypress/psoc creator/4.4/psoc creator/import/gnu/arm/5.4.1/bin/../lib/gcc/arm-none-eabi/5.4.1/../../../../arm-none-eabi/lib/armv6-m\libg_nano.a(lib_a-fwalk.o)
 .ARM.attributes
                0x00000d1e       0x2c c:/program files (x86)/cypress/psoc creator/4.4/psoc creator/import/gnu/arm/5.4.1/bin/../lib/gcc/arm-none-eabi/5.4.1/../../../../arm-none-eabi/lib/armv6-m\libg_nano.a(lib_a-gdtoa-gethex.o)
 .ARM.attributes
                0x00000d4a       0x2c c:/program files (x86)/cypress/psoc creator/4.4/psoc creator/import/gnu/arm/5.4.1/bin/../lib/gcc/arm-none-eabi/5.4.1/../../../../arm-none-eabi/lib/armv6-m\libg_nano.a(lib_a-gdtoa-hexnan.o)
 .ARM.attributes
                0x00000d76       0x2c c:/program files (x86)/cypress/psoc creator/4.4/psoc creator/import/gnu/arm/5.4.1/bin/../lib/gcc/arm-none-eabi/5.4.1/../../../../arm-none-eabi/lib/armv6-m\libg_nano.a(lib_a-locale.o)
 .ARM.attributes
                0x00000da2       0x2c c:/program files (x86)/cypress/psoc creator/4.4/psoc creator/import/gnu/arm/5.4.1/bin/../lib/gcc/arm-none-eabi/5.4.1/../../../../arm-none-eabi/lib/armv6-m\libg_nano.a(lib_a-makebuf.o)
 .ARM.attributes
                0x00000dce       0x2c c:/program files (x86)/cypress/psoc creator/4.4/psoc creator/import/gnu/arm/5.4.1/bin/../lib/gcc/arm-none-eabi/5.4.1/../../../../arm-none-eabi/lib/armv6-m\libg_nano.a(lib_a-mprec.o)
 .ARM.attributes
                0x00000dfa       0x2c c:/program files (x86)/cypress/psoc creator/4.4/psoc creator/import/gnu/arm/5.4.1/bin/../lib/gcc/arm-none-eabi/5.4.1/../../../../arm-none-eabi/lib/armv6-m\libg_nano.a(lib_a-nano-callocr.o)
 .ARM.attributes
                0x00000e26       0x2c c:/program files (x86)/cypress/psoc creator/4.4/psoc creator/import/gnu/arm/5.4.1/bin/../lib/gcc/arm-none-eabi/5.4.1/../../../../arm-none-eabi/lib/armv6-m\libg_nano.a(lib_a-nano-freer.o)
 .ARM.attributes
                0x00000e52       0x2c c:/program files (x86)/cypress/psoc creator/4.4/psoc creator/import/gnu/arm/5.4.1/bin/../lib/gcc/arm-none-eabi/5.4.1/../../../../arm-none-eabi/lib/armv6-m\libg_nano.a(lib_a-nano-mallocr.o)
 .ARM.attributes
                0x00000e7e       0x2c c:/program files (x86)/cypress/psoc creator/4.4/psoc creator/import/gnu/arm/5.4.1/bin/../lib/gcc/arm-none-eabi/5.4.1/../../../../arm-none-eabi/lib/armv6-m\libg_nano.a(lib_a-nano-vfprintf.o)
 .ARM.attributes
                0x00000eaa       0x2c c:/program files (x86)/cypress/psoc creator/4.4/psoc creator/import/gnu/arm/5.4.1/bin/../lib/gcc/arm-none-eabi/5.4.1/../../../../arm-none-eabi/lib/armv6-m\libg_nano.a(lib_a-nano-vfprintf_i.o)
 .ARM.attributes
                0x00000ed6       0x2c c:/program files (x86)/cypress/psoc creator/4.4/psoc creator/import/gnu/arm/5.4.1/bin/../lib/gcc/arm-none-eabi/5.4.1/../../../../arm-none-eabi/lib/armv6-m\libg_nano.a(lib_a-putc.o)
 .ARM.attributes
                0x00000f02       0x2c c:/program files (x86)/cypress/psoc creator/4.4/psoc creator/import/gnu/arm/5.4.1/bin/../lib/gcc/arm-none-eabi/5.4.1/../../../../arm-none-eabi/lib/armv6-m\libg_nano.a(lib_a-sbrkr.o)
 .ARM.attributes
                0x00000f2e       0x2c c:/program files (x86)/cypress/psoc creator/4.4/psoc creator/import/gnu/arm/5.4.1/bin/../lib/gcc/arm-none-eabi/5.4.1/../../../../arm-none-eabi/lib/armv6-m\libg_nano.a(lib_a-sf_nan.o)
 .ARM.attributes
                0x00000f5a       0x2c c:/program files (x86)/cypress/psoc creator/4.4/psoc creator/import/gnu/arm/5.4.1/bin/../lib/gcc/arm-none-eabi/5.4.1/../../../../arm-none-eabi/lib/armv6-m\libg_nano.a(lib_a-stdio.o)
 .ARM.attributes
                0x00000f86       0x1c c:/program files (x86)/cypress/psoc creator/4.4/psoc creator/import/gnu/arm/5.4.1/bin/../lib/gcc/arm-none-eabi/5.4.1/../../../../arm-none-eabi/lib/armv6-m\libg_nano.a(lib_a-strcmp.o)
 .ARM.attributes
                0x00000fa2       0x1c c:/program files (x86)/cypress/psoc creator/4.4/psoc creator/import/gnu/arm/5.4.1/bin/../lib/gcc/arm-none-eabi/5.4.1/../../../../arm-none-eabi/lib/armv6-m\libg_nano.a(lib_a-strlen.o)
 .ARM.attributes
                0x00000fbe       0x2c c:/program files (x86)/cypress/psoc creator/4.4/psoc creator/import/gnu/arm/5.4.1/bin/../lib/gcc/arm-none-eabi/5.4.1/../../../../arm-none-eabi/lib/armv6-m\libg_nano.a(lib_a-strncmp.o)
 .ARM.attributes
                0x00000fea       0x2c c:/program files (x86)/cypress/psoc creator/4.4/psoc creator/import/gnu/arm/5.4.1/bin/../lib/gcc/arm-none-eabi/5.4.1/../../../../arm-none-eabi/lib/armv6-m\libg_nano.a(lib_a-writer.o)
 .ARM.attributes
                0x00001016       0x2c c:/program files (x86)/cypress/psoc creator/4.4/psoc creator/import/gnu/arm/5.4.1/bin/../lib/gcc/arm-none-eabi/5.4.1/../../../../arm-none-eabi/lib/armv6-m\libg_nano.a(lib_a-closer.o)
 .ARM.attributes
                0x00001042       0x2c c:/program files (x86)/cypress/psoc creator/4.4/psoc creator/import/gnu/arm/5.4.1/bin/../lib/gcc/arm-none-eabi/5.4.1/../../../../arm-none-eabi/lib/armv6-m\libg_nano.a(lib_a-fstatr.o)
 .ARM.attributes
                0x0000106e       0x2c c:/program files (x86)/cypress/psoc creator/4.4/psoc creator/import/gnu/arm/5.4.1/bin/../lib/gcc/arm-none-eabi/5.4.1/../../../../arm-none-eabi/lib/armv6-m\libg_nano.a(lib_a-fvwrite.o)
 .ARM.attributes
                0x0000109a       0x2c c:/program files (x86)/cypress/psoc creator/4.4/psoc creator/import/gnu/arm/5.4.1/bin/../lib/gcc/arm-none-eabi/5.4.1/../../../../arm-none-eabi/lib/armv6-m\libg_nano.a(lib_a-isattyr.o)
 .ARM.attributes
                0x000010c6       0x2c c:/program files (x86)/cypress/psoc creator/4.4/psoc creator/import/gnu/arm/5.4.1/bin/../lib/gcc/arm-none-eabi/5.4.1/../../../../arm-none-eabi/lib/armv6-m\libg_nano.a(lib_a-lseekr.o)
 .ARM.attributes
                0x000010f2       0x2c c:/program files (x86)/cypress/psoc creator/4.4/psoc creator/import/gnu/arm/5.4.1/bin/../lib/gcc/arm-none-eabi/5.4.1/../../../../arm-none-eabi/lib/armv6-m\libg_nano.a(lib_a-malloc.o)
 .ARM.attributes
                0x0000111e       0x2c c:/program files (x86)/cypress/psoc creator/4.4/psoc creator/import/gnu/arm/5.4.1/bin/../lib/gcc/arm-none-eabi/5.4.1/../../../../arm-none-eabi/lib/armv6-m\libg_nano.a(lib_a-memchr-stub.o)
 .ARM.attributes
                0x0000114a       0x2c c:/program files (x86)/cypress/psoc creator/4.4/psoc creator/import/gnu/arm/5.4.1/bin/../lib/gcc/arm-none-eabi/5.4.1/../../../../arm-none-eabi/lib/armv6-m\libg_nano.a(lib_a-memmove.o)
 .ARM.attributes
                0x00001176       0x2c c:/program files (x86)/cypress/psoc creator/4.4/psoc creator/import/gnu/arm/5.4.1/bin/../lib/gcc/arm-none-eabi/5.4.1/../../../../arm-none-eabi/lib/armv6-m\libg_nano.a(lib_a-mlock.o)
 .ARM.attributes
                0x000011a2       0x2c c:/program files (x86)/cypress/psoc creator/4.4/psoc creator/import/gnu/arm/5.4.1/bin/../lib/gcc/arm-none-eabi/5.4.1/../../../../arm-none-eabi/lib/armv6-m\libg_nano.a(lib_a-nano-reallocr.o)
 .ARM.attributes
                0x000011ce       0x2c c:/program files (x86)/cypress/psoc creator/4.4/psoc creator/import/gnu/arm/5.4.1/bin/../lib/gcc/arm-none-eabi/5.4.1/../../../../arm-none-eabi/lib/armv6-m\libg_nano.a(lib_a-readr.o)
 .ARM.attributes
                0x000011fa       0x2c c:/program files (x86)/cypress/psoc creator/4.4/psoc creator/import/gnu/arm/5.4.1/bin/../lib/gcc/arm-none-eabi/5.4.1/../../../../arm-none-eabi/lib/armv6-m\libg_nano.a(lib_a-reent.o)
 .ARM.attributes
                0x00001226       0x2c c:/program files (x86)/cypress/psoc creator/4.4/psoc creator/import/gnu/arm/5.4.1/bin/../lib/gcc/arm-none-eabi/5.4.1/../../../../arm-none-eabi/lib/armv6-m\libg_nano.a(lib_a-nano-msizer.o)
 .ARM.attributes
                0x00001252       0x1e c:/program files (x86)/cypress/psoc creator/4.4/psoc creator/import/gnu/arm/5.4.1/bin/../lib/gcc/arm-none-eabi/5.4.1/armv6-m\libgcc.a(_thumb1_case_uqi.o)
 .ARM.attributes
                0x00001270       0x2c c:/program files (x86)/cypress/psoc creator/4.4/psoc creator/import/gnu/arm/5.4.1/bin/../lib/gcc/arm-none-eabi/5.4.1/armv6-m\libgcc.a(adddf3.o)
 .ARM.attributes
                0x0000129c       0x2c c:/program files (x86)/cypress/psoc creator/4.4/psoc creator/import/gnu/arm/5.4.1/bin/../lib/gcc/arm-none-eabi/5.4.1/armv6-m\libgcc.a(unorddf2.o)
 .ARM.attributes
                0x000012c8       0x2c c:/program files (x86)/cypress/psoc creator/4.4/psoc creator/import/gnu/arm/5.4.1/bin/../lib/gcc/arm-none-eabi/5.4.1/armv6-m\libgcc.a(floatsidf.o)
 .ARM.attributes
                0x000012f4       0x2c c:/program files (x86)/cypress/psoc creator/4.4/psoc creator/import/gnu/arm/5.4.1/bin/../lib/gcc/arm-none-eabi/5.4.1/armv6-m/crtend.o
 .ARM.attributes
                0x00001320       0x1e c:/program files (x86)/cypress/psoc creator/4.4/psoc creator/import/gnu/arm/5.4.1/bin/../lib/gcc/arm-none-eabi/5.4.1/armv6-m/crtn.o
 .ARM.attributes
                0x0000133e       0x2c c:/program files (x86)/cypress/psoc creator/4.4/psoc creator/import/gnu/arm/5.4.1/bin/../lib/gcc/arm-none-eabi/5.4.1/../../../../arm-none-eabi/lib/armv6-m\libnosys.a(close.o)
 .ARM.attributes
                0x0000136a       0x2c c:/program files (x86)/cypress/psoc creator/4.4/psoc creator/import/gnu/arm/5.4.1/bin/../lib/gcc/arm-none-eabi/5.4.1/../../../../arm-none-eabi/lib/armv6-m\libnosys.a(fstat.o)
 .ARM.attributes
                0x00001396       0x2c c:/program files (x86)/cypress/psoc creator/4.4/psoc creator/import/gnu/arm/5.4.1/bin/../lib/gcc/arm-none-eabi/5.4.1/../../../../arm-none-eabi/lib/armv6-m\libnosys.a(isatty.o)
 .ARM.attributes
                0x000013c2       0x2c c:/program files (x86)/cypress/psoc creator/4.4/psoc creator/import/gnu/arm/5.4.1/bin/../lib/gcc/arm-none-eabi/5.4.1/../../../../arm-none-eabi/lib/armv6-m\libnosys.a(lseek.o)
 .ARM.attributes
                0x000013ee       0x2c c:/program files (x86)/cypress/psoc creator/4.4/psoc creator/import/gnu/arm/5.4.1/bin/../lib/gcc/arm-none-eabi/5.4.1/../../../../arm-none-eabi/lib/armv6-m\libnosys.a(read.o)

/DISCARD/
 *(.note.GNU-stack)
OUTPUT(C:\Users\Prajwal Trachealth\Documents\PSoC Creator\E-Lagori PSoC 11th April 2023\BLDC Motor.cydsn\CortexM0\ARM_GCC_541\Debug\BLDC Motor.elf elf32-littlearm)
