ARM GAS  C:\Users\PRAJWA~1\AppData\Local\Temp\ccU7CSc1.s 			page 1


   1              		.syntax unified
   2              		.cpu cortex-m0
   3              		.fpu softvfp
   4              		.eabi_attribute 20, 1
   5              		.eabi_attribute 21, 1
   6              		.eabi_attribute 23, 3
   7              		.eabi_attribute 24, 1
   8              		.eabi_attribute 25, 1
   9              		.eabi_attribute 26, 1
  10              		.eabi_attribute 30, 1
  11              		.eabi_attribute 34, 0
  12              		.eabi_attribute 18, 4
  13              		.thumb
  14              		.syntax unified
  15              		.file	"cyfitter_cfg.c"
  16              		.text
  17              	.Ltext0:
  18              		.cfi_sections	.debug_frame
  19              		.section	.text.cfg_write_bytes32,"ax",%progbits
  20              		.align	2
  21              		.code	16
  22              		.thumb_func
  23              		.type	cfg_write_bytes32, %function
  24              	cfg_write_bytes32:
  25              	.LFB4:
  26              		.file 1 "Generated_Source\\PSoC4\\cyfitter_cfg.c"
   1:Generated_Source\PSoC4/cyfitter_cfg.c **** 
   2:Generated_Source\PSoC4/cyfitter_cfg.c **** /*******************************************************************************
   3:Generated_Source\PSoC4/cyfitter_cfg.c **** * File Name: cyfitter_cfg.c
   4:Generated_Source\PSoC4/cyfitter_cfg.c **** * 
   5:Generated_Source\PSoC4/cyfitter_cfg.c **** * PSoC Creator  4.4
   6:Generated_Source\PSoC4/cyfitter_cfg.c **** *
   7:Generated_Source\PSoC4/cyfitter_cfg.c **** * Description:
   8:Generated_Source\PSoC4/cyfitter_cfg.c **** * This file contains device initialization code.
   9:Generated_Source\PSoC4/cyfitter_cfg.c **** * Except for the user defined sections in CyClockStartupError(), this file should not be modified.
  10:Generated_Source\PSoC4/cyfitter_cfg.c **** * This file is automatically generated by PSoC Creator.
  11:Generated_Source\PSoC4/cyfitter_cfg.c **** *
  12:Generated_Source\PSoC4/cyfitter_cfg.c **** ********************************************************************************
  13:Generated_Source\PSoC4/cyfitter_cfg.c **** * Copyright (c) 2007-2020 Cypress Semiconductor.  All rights reserved.
  14:Generated_Source\PSoC4/cyfitter_cfg.c **** * You may use this file only in accordance with the license, terms, conditions, 
  15:Generated_Source\PSoC4/cyfitter_cfg.c **** * disclaimers, and limitations in the end user license agreement accompanying 
  16:Generated_Source\PSoC4/cyfitter_cfg.c **** * the software package with which this file was provided.
  17:Generated_Source\PSoC4/cyfitter_cfg.c **** ********************************************************************************/
  18:Generated_Source\PSoC4/cyfitter_cfg.c **** 
  19:Generated_Source\PSoC4/cyfitter_cfg.c **** #include <string.h>
  20:Generated_Source\PSoC4/cyfitter_cfg.c **** #include "cytypes.h"
  21:Generated_Source\PSoC4/cyfitter_cfg.c **** #include "cydevice_trm.h"
  22:Generated_Source\PSoC4/cyfitter_cfg.c **** #include "cyfitter.h"
  23:Generated_Source\PSoC4/cyfitter_cfg.c **** #include "CyLib.h"
  24:Generated_Source\PSoC4/cyfitter_cfg.c **** #include "CyLFClk.h"
  25:Generated_Source\PSoC4/cyfitter_cfg.c **** #include "cyfitter_cfg.h"
  26:Generated_Source\PSoC4/cyfitter_cfg.c **** #include "cyapicallbacks.h"
  27:Generated_Source\PSoC4/cyfitter_cfg.c **** 
  28:Generated_Source\PSoC4/cyfitter_cfg.c **** 
  29:Generated_Source\PSoC4/cyfitter_cfg.c **** #if defined(__GNUC__) || defined(__ARMCC_VERSION)
  30:Generated_Source\PSoC4/cyfitter_cfg.c ****     #define CYPACKED 
  31:Generated_Source\PSoC4/cyfitter_cfg.c ****     #define CYPACKED_ATTR __attribute__ ((packed))
ARM GAS  C:\Users\PRAJWA~1\AppData\Local\Temp\ccU7CSc1.s 			page 2


  32:Generated_Source\PSoC4/cyfitter_cfg.c ****     #define CYALIGNED __attribute__ ((aligned))
  33:Generated_Source\PSoC4/cyfitter_cfg.c ****     #define CY_CFG_UNUSED __attribute__ ((unused))
  34:Generated_Source\PSoC4/cyfitter_cfg.c ****     #ifndef CY_CFG_SECTION
  35:Generated_Source\PSoC4/cyfitter_cfg.c ****         #define CY_CFG_SECTION __attribute__ ((section(".psocinit")))
  36:Generated_Source\PSoC4/cyfitter_cfg.c ****     #endif
  37:Generated_Source\PSoC4/cyfitter_cfg.c ****     
  38:Generated_Source\PSoC4/cyfitter_cfg.c ****     #if defined(__ARMCC_VERSION)
  39:Generated_Source\PSoC4/cyfitter_cfg.c ****         #define CY_CFG_MEMORY_BARRIER() __memory_changed()
  40:Generated_Source\PSoC4/cyfitter_cfg.c ****     #else
  41:Generated_Source\PSoC4/cyfitter_cfg.c ****         #define CY_CFG_MEMORY_BARRIER() __sync_synchronize()
  42:Generated_Source\PSoC4/cyfitter_cfg.c ****     #endif
  43:Generated_Source\PSoC4/cyfitter_cfg.c ****     
  44:Generated_Source\PSoC4/cyfitter_cfg.c **** #elif defined(__ICCARM__)
  45:Generated_Source\PSoC4/cyfitter_cfg.c ****     #include <intrinsics.h>
  46:Generated_Source\PSoC4/cyfitter_cfg.c **** 
  47:Generated_Source\PSoC4/cyfitter_cfg.c ****     #define CYPACKED __packed
  48:Generated_Source\PSoC4/cyfitter_cfg.c ****     #define CYPACKED_ATTR 
  49:Generated_Source\PSoC4/cyfitter_cfg.c ****     #define CYALIGNED _Pragma("data_alignment=4")
  50:Generated_Source\PSoC4/cyfitter_cfg.c ****     #define CY_CFG_UNUSED _Pragma("diag_suppress=Pe177")
  51:Generated_Source\PSoC4/cyfitter_cfg.c ****     #define CY_CFG_SECTION _Pragma("location=\".psocinit\"")
  52:Generated_Source\PSoC4/cyfitter_cfg.c ****     
  53:Generated_Source\PSoC4/cyfitter_cfg.c ****     #define CY_CFG_MEMORY_BARRIER() __DMB()
  54:Generated_Source\PSoC4/cyfitter_cfg.c ****     
  55:Generated_Source\PSoC4/cyfitter_cfg.c **** #else
  56:Generated_Source\PSoC4/cyfitter_cfg.c ****     #error Unsupported toolchain
  57:Generated_Source\PSoC4/cyfitter_cfg.c **** #endif
  58:Generated_Source\PSoC4/cyfitter_cfg.c **** 
  59:Generated_Source\PSoC4/cyfitter_cfg.c **** #ifndef CYCODE
  60:Generated_Source\PSoC4/cyfitter_cfg.c ****     #define CYCODE
  61:Generated_Source\PSoC4/cyfitter_cfg.c **** #endif
  62:Generated_Source\PSoC4/cyfitter_cfg.c **** #ifndef CYDATA
  63:Generated_Source\PSoC4/cyfitter_cfg.c ****     #define CYDATA
  64:Generated_Source\PSoC4/cyfitter_cfg.c **** #endif
  65:Generated_Source\PSoC4/cyfitter_cfg.c **** #ifndef CYFAR
  66:Generated_Source\PSoC4/cyfitter_cfg.c ****     #define CYFAR
  67:Generated_Source\PSoC4/cyfitter_cfg.c **** #endif
  68:Generated_Source\PSoC4/cyfitter_cfg.c **** #ifndef CYXDATA
  69:Generated_Source\PSoC4/cyfitter_cfg.c ****     #define CYXDATA
  70:Generated_Source\PSoC4/cyfitter_cfg.c **** #endif
  71:Generated_Source\PSoC4/cyfitter_cfg.c **** 
  72:Generated_Source\PSoC4/cyfitter_cfg.c **** 
  73:Generated_Source\PSoC4/cyfitter_cfg.c **** CY_CFG_UNUSED
  74:Generated_Source\PSoC4/cyfitter_cfg.c **** static void CYMEMZERO(void *s, size_t n);
  75:Generated_Source\PSoC4/cyfitter_cfg.c **** CY_CFG_UNUSED
  76:Generated_Source\PSoC4/cyfitter_cfg.c **** static void CYMEMZERO(void *s, size_t n)
  77:Generated_Source\PSoC4/cyfitter_cfg.c **** {
  78:Generated_Source\PSoC4/cyfitter_cfg.c **** 	(void)memset(s, 0, n);
  79:Generated_Source\PSoC4/cyfitter_cfg.c **** }
  80:Generated_Source\PSoC4/cyfitter_cfg.c **** CY_CFG_UNUSED
  81:Generated_Source\PSoC4/cyfitter_cfg.c **** static void CYCONFIGCPY(void *dest, const void *src, size_t n);
  82:Generated_Source\PSoC4/cyfitter_cfg.c **** CY_CFG_UNUSED
  83:Generated_Source\PSoC4/cyfitter_cfg.c **** static void CYCONFIGCPY(void *dest, const void *src, size_t n)
  84:Generated_Source\PSoC4/cyfitter_cfg.c **** {
  85:Generated_Source\PSoC4/cyfitter_cfg.c **** 	(void)memcpy(dest, src, n);
  86:Generated_Source\PSoC4/cyfitter_cfg.c **** }
  87:Generated_Source\PSoC4/cyfitter_cfg.c **** CY_CFG_UNUSED
  88:Generated_Source\PSoC4/cyfitter_cfg.c **** static void CYCONFIGCPYCODE(void *dest, const void *src, size_t n);
ARM GAS  C:\Users\PRAJWA~1\AppData\Local\Temp\ccU7CSc1.s 			page 3


  89:Generated_Source\PSoC4/cyfitter_cfg.c **** CY_CFG_UNUSED
  90:Generated_Source\PSoC4/cyfitter_cfg.c **** static void CYCONFIGCPYCODE(void *dest, const void *src, size_t n)
  91:Generated_Source\PSoC4/cyfitter_cfg.c **** {
  92:Generated_Source\PSoC4/cyfitter_cfg.c **** 	(void)memcpy(dest, src, n);
  93:Generated_Source\PSoC4/cyfitter_cfg.c **** }
  94:Generated_Source\PSoC4/cyfitter_cfg.c **** 
  95:Generated_Source\PSoC4/cyfitter_cfg.c **** 
  96:Generated_Source\PSoC4/cyfitter_cfg.c **** 
  97:Generated_Source\PSoC4/cyfitter_cfg.c **** 
  98:Generated_Source\PSoC4/cyfitter_cfg.c **** /* Clock startup error codes                                                   */
  99:Generated_Source\PSoC4/cyfitter_cfg.c **** #define CYCLOCKSTART_NO_ERROR    0u
 100:Generated_Source\PSoC4/cyfitter_cfg.c **** #define CYCLOCKSTART_XTAL_ERROR  1u
 101:Generated_Source\PSoC4/cyfitter_cfg.c **** #define CYCLOCKSTART_32KHZ_ERROR 2u
 102:Generated_Source\PSoC4/cyfitter_cfg.c **** #define CYCLOCKSTART_PLL_ERROR   3u
 103:Generated_Source\PSoC4/cyfitter_cfg.c **** #define CYCLOCKSTART_FLL_ERROR   4u
 104:Generated_Source\PSoC4/cyfitter_cfg.c **** #define CYCLOCKSTART_WCO_ERROR   5u
 105:Generated_Source\PSoC4/cyfitter_cfg.c **** 
 106:Generated_Source\PSoC4/cyfitter_cfg.c **** 
 107:Generated_Source\PSoC4/cyfitter_cfg.c **** #ifdef CY_NEED_CYCLOCKSTARTUPERROR
 108:Generated_Source\PSoC4/cyfitter_cfg.c **** /*******************************************************************************
 109:Generated_Source\PSoC4/cyfitter_cfg.c **** * Function Name: CyClockStartupError
 110:Generated_Source\PSoC4/cyfitter_cfg.c **** ********************************************************************************
 111:Generated_Source\PSoC4/cyfitter_cfg.c **** * Summary:
 112:Generated_Source\PSoC4/cyfitter_cfg.c **** *  If an error is encountered during clock configuration (crystal startup error,
 113:Generated_Source\PSoC4/cyfitter_cfg.c **** *  PLL lock error, etc.), the system will end up here.  Unless reimplemented by
 114:Generated_Source\PSoC4/cyfitter_cfg.c **** *  the customer, this function will stop in an infinite loop.
 115:Generated_Source\PSoC4/cyfitter_cfg.c **** *
 116:Generated_Source\PSoC4/cyfitter_cfg.c **** * Parameters:
 117:Generated_Source\PSoC4/cyfitter_cfg.c **** *   void
 118:Generated_Source\PSoC4/cyfitter_cfg.c **** *
 119:Generated_Source\PSoC4/cyfitter_cfg.c **** * Return:
 120:Generated_Source\PSoC4/cyfitter_cfg.c **** *   void
 121:Generated_Source\PSoC4/cyfitter_cfg.c **** *
 122:Generated_Source\PSoC4/cyfitter_cfg.c **** *******************************************************************************/
 123:Generated_Source\PSoC4/cyfitter_cfg.c **** CY_CFG_UNUSED
 124:Generated_Source\PSoC4/cyfitter_cfg.c **** static void CyClockStartupError(uint8 errorCode);
 125:Generated_Source\PSoC4/cyfitter_cfg.c **** CY_CFG_UNUSED
 126:Generated_Source\PSoC4/cyfitter_cfg.c **** static void CyClockStartupError(uint8 errorCode)
 127:Generated_Source\PSoC4/cyfitter_cfg.c **** {
 128:Generated_Source\PSoC4/cyfitter_cfg.c ****     /* To remove the compiler warning if errorCode not used.                */
 129:Generated_Source\PSoC4/cyfitter_cfg.c ****     errorCode = errorCode;
 130:Generated_Source\PSoC4/cyfitter_cfg.c **** 
 131:Generated_Source\PSoC4/cyfitter_cfg.c ****     /* If we have a clock startup error (bad MHz crystal, PLL lock, etc.),  */
 132:Generated_Source\PSoC4/cyfitter_cfg.c ****     /* we will end up here to allow the customer to implement something to  */
 133:Generated_Source\PSoC4/cyfitter_cfg.c ****     /* deal with the clock condition.                                       */
 134:Generated_Source\PSoC4/cyfitter_cfg.c **** 
 135:Generated_Source\PSoC4/cyfitter_cfg.c **** #ifdef CY_CFG_CLOCK_STARTUP_ERROR_CALLBACK
 136:Generated_Source\PSoC4/cyfitter_cfg.c ****     CY_CFG_Clock_Startup_ErrorCallback();
 137:Generated_Source\PSoC4/cyfitter_cfg.c **** #else
 138:Generated_Source\PSoC4/cyfitter_cfg.c ****     /*  If not using CY_CFG_CLOCK_STARTUP_ERROR_CALLBACK, place your clock startup code here. */
 139:Generated_Source\PSoC4/cyfitter_cfg.c ****     /* `#START CyClockStartupError` */
 140:Generated_Source\PSoC4/cyfitter_cfg.c **** 
 141:Generated_Source\PSoC4/cyfitter_cfg.c **** 
 142:Generated_Source\PSoC4/cyfitter_cfg.c **** 
 143:Generated_Source\PSoC4/cyfitter_cfg.c ****     /* `#END` */
 144:Generated_Source\PSoC4/cyfitter_cfg.c **** 
 145:Generated_Source\PSoC4/cyfitter_cfg.c ****     while(1) {}
ARM GAS  C:\Users\PRAJWA~1\AppData\Local\Temp\ccU7CSc1.s 			page 4


 146:Generated_Source\PSoC4/cyfitter_cfg.c **** #endif /* CY_CFG_CLOCK_STARTUP_ERROR_CALLBACK */
 147:Generated_Source\PSoC4/cyfitter_cfg.c **** }
 148:Generated_Source\PSoC4/cyfitter_cfg.c **** #endif
 149:Generated_Source\PSoC4/cyfitter_cfg.c **** 
 150:Generated_Source\PSoC4/cyfitter_cfg.c **** #define CY_CFG_BASE_ADDR_COUNT 8u
 151:Generated_Source\PSoC4/cyfitter_cfg.c **** CYPACKED typedef struct
 152:Generated_Source\PSoC4/cyfitter_cfg.c **** {
 153:Generated_Source\PSoC4/cyfitter_cfg.c **** 	uint8 offset;
 154:Generated_Source\PSoC4/cyfitter_cfg.c **** 	uint8 value;
 155:Generated_Source\PSoC4/cyfitter_cfg.c **** } CYPACKED_ATTR cy_cfg_addrvalue_t;
 156:Generated_Source\PSoC4/cyfitter_cfg.c **** 
 157:Generated_Source\PSoC4/cyfitter_cfg.c **** 
 158:Generated_Source\PSoC4/cyfitter_cfg.c **** 
 159:Generated_Source\PSoC4/cyfitter_cfg.c **** /*******************************************************************************
 160:Generated_Source\PSoC4/cyfitter_cfg.c **** * Function Name: cfg_write_bytes32
 161:Generated_Source\PSoC4/cyfitter_cfg.c **** ********************************************************************************
 162:Generated_Source\PSoC4/cyfitter_cfg.c **** * Summary:
 163:Generated_Source\PSoC4/cyfitter_cfg.c **** *  This function is used for setting up the chip configuration areas that
 164:Generated_Source\PSoC4/cyfitter_cfg.c **** *  contain relatively sparse data.
 165:Generated_Source\PSoC4/cyfitter_cfg.c **** *
 166:Generated_Source\PSoC4/cyfitter_cfg.c **** * Parameters:
 167:Generated_Source\PSoC4/cyfitter_cfg.c **** *   void
 168:Generated_Source\PSoC4/cyfitter_cfg.c **** *
 169:Generated_Source\PSoC4/cyfitter_cfg.c **** * Return:
 170:Generated_Source\PSoC4/cyfitter_cfg.c **** *   void
 171:Generated_Source\PSoC4/cyfitter_cfg.c **** *
 172:Generated_Source\PSoC4/cyfitter_cfg.c **** *******************************************************************************/
 173:Generated_Source\PSoC4/cyfitter_cfg.c **** static void cfg_write_bytes32(const uint32 addr_table[], const cy_cfg_addrvalue_t data_table[]);
 174:Generated_Source\PSoC4/cyfitter_cfg.c **** static void cfg_write_bytes32(const uint32 addr_table[], const cy_cfg_addrvalue_t data_table[])
 175:Generated_Source\PSoC4/cyfitter_cfg.c **** {
  27              		.loc 1 175 0
  28              		.cfi_startproc
  29              		@ args = 0, pretend = 0, frame = 0
  30              		@ frame_needed = 0, uses_anonymous_args = 0
  31              	.LVL0:
  32 0000 F0B5     		push	{r4, r5, r6, r7, lr}
  33              		.cfi_def_cfa_offset 20
  34              		.cfi_offset 4, -20
  35              		.cfi_offset 5, -16
  36              		.cfi_offset 6, -12
  37              		.cfi_offset 7, -8
  38              		.cfi_offset 14, -4
  39              	.LVL1:
 176:Generated_Source\PSoC4/cyfitter_cfg.c **** 	/* For 32-bit little-endian architectures */
 177:Generated_Source\PSoC4/cyfitter_cfg.c **** 	uint32 i, j = 0u;
  40              		.loc 1 177 0
  41 0002 0025     		movs	r5, #0
 178:Generated_Source\PSoC4/cyfitter_cfg.c **** 	for (i = 0u; i < CY_CFG_BASE_ADDR_COUNT; i++)
  42              		.loc 1 178 0
  43 0004 0027     		movs	r7, #0
  44 0006 11E0     		b	.L2
  45              	.LVL2:
  46              	.L5:
  47              	.LBB2:
 179:Generated_Source\PSoC4/cyfitter_cfg.c **** 	{
 180:Generated_Source\PSoC4/cyfitter_cfg.c **** 		uint32 baseAddr = addr_table[i];
  48              		.loc 1 180 0
ARM GAS  C:\Users\PRAJWA~1\AppData\Local\Temp\ccU7CSc1.s 			page 5


  49 0008 BB00     		lsls	r3, r7, #2
  50 000a C658     		ldr	r6, [r0, r3]
  51              	.LVL3:
 181:Generated_Source\PSoC4/cyfitter_cfg.c **** 		uint8 count = (uint8)baseAddr;
  52              		.loc 1 181 0
  53 000c F3B2     		uxtb	r3, r6
  54              	.LVL4:
 182:Generated_Source\PSoC4/cyfitter_cfg.c **** 		baseAddr &= 0xFFFFFF00u;
  55              		.loc 1 182 0
  56 000e FF22     		movs	r2, #255
  57 0010 9643     		bics	r6, r2
  58              	.LVL5:
 183:Generated_Source\PSoC4/cyfitter_cfg.c **** 		while (count != 0u)
  59              		.loc 1 183 0
  60 0012 08E0     		b	.L3
  61              	.L4:
 184:Generated_Source\PSoC4/cyfitter_cfg.c **** 		{
 185:Generated_Source\PSoC4/cyfitter_cfg.c **** 			CY_SET_REG8((void *)(baseAddr + data_table[j].offset), data_table[j].value);
  62              		.loc 1 185 0
  63 0014 6A00     		lsls	r2, r5, #1
  64 0016 8A18     		adds	r2, r1, r2
  65 0018 1478     		ldrb	r4, [r2]
  66 001a A419     		adds	r4, r4, r6
  67 001c 5278     		ldrb	r2, [r2, #1]
  68 001e 2270     		strb	r2, [r4]
 186:Generated_Source\PSoC4/cyfitter_cfg.c **** 			j++;
  69              		.loc 1 186 0
  70 0020 0135     		adds	r5, r5, #1
  71              	.LVL6:
 187:Generated_Source\PSoC4/cyfitter_cfg.c **** 			count--;
  72              		.loc 1 187 0
  73 0022 013B     		subs	r3, r3, #1
  74              	.LVL7:
  75 0024 DBB2     		uxtb	r3, r3
  76              	.LVL8:
  77              	.L3:
 183:Generated_Source\PSoC4/cyfitter_cfg.c **** 		{
  78              		.loc 1 183 0
  79 0026 002B     		cmp	r3, #0
  80 0028 F4D1     		bne	.L4
  81              	.LBE2:
 178:Generated_Source\PSoC4/cyfitter_cfg.c **** 	{
  82              		.loc 1 178 0 discriminator 2
  83 002a 0137     		adds	r7, r7, #1
  84              	.LVL9:
  85              	.L2:
 178:Generated_Source\PSoC4/cyfitter_cfg.c **** 	{
  86              		.loc 1 178 0 is_stmt 0 discriminator 1
  87 002c 072F     		cmp	r7, #7
  88 002e EBD9     		bls	.L5
 188:Generated_Source\PSoC4/cyfitter_cfg.c **** 		}
 189:Generated_Source\PSoC4/cyfitter_cfg.c **** 	}
 190:Generated_Source\PSoC4/cyfitter_cfg.c **** }
  89              		.loc 1 190 0 is_stmt 1
  90              		@ sp needed
  91              	.LVL10:
  92              	.LVL11:
ARM GAS  C:\Users\PRAJWA~1\AppData\Local\Temp\ccU7CSc1.s 			page 6


  93 0030 F0BD     		pop	{r4, r5, r6, r7, pc}
  94              		.cfi_endproc
  95              	.LFE4:
  96              		.size	cfg_write_bytes32, .-cfg_write_bytes32
  97 0032 C046     		.section	.text.AnalogSetDefault,"ax",%progbits
  98              		.align	2
  99              		.code	16
 100              		.thumb_func
 101              		.type	AnalogSetDefault, %function
 102              	AnalogSetDefault:
 103              	.LFB6:
 191:Generated_Source\PSoC4/cyfitter_cfg.c **** 
 192:Generated_Source\PSoC4/cyfitter_cfg.c **** 
 193:Generated_Source\PSoC4/cyfitter_cfg.c **** /*******************************************************************************
 194:Generated_Source\PSoC4/cyfitter_cfg.c **** * Function Name: ClockSetup
 195:Generated_Source\PSoC4/cyfitter_cfg.c **** ********************************************************************************
 196:Generated_Source\PSoC4/cyfitter_cfg.c **** *
 197:Generated_Source\PSoC4/cyfitter_cfg.c **** * Summary:
 198:Generated_Source\PSoC4/cyfitter_cfg.c **** *   Performs the initialization of all of the clocks in the device based on the
 199:Generated_Source\PSoC4/cyfitter_cfg.c **** *   settings in the Clock tab of the DWR.  This includes enabling the requested
 200:Generated_Source\PSoC4/cyfitter_cfg.c **** *   clocks and setting the necessary dividers to produce the desired frequency. 
 201:Generated_Source\PSoC4/cyfitter_cfg.c **** *
 202:Generated_Source\PSoC4/cyfitter_cfg.c **** * Parameters:
 203:Generated_Source\PSoC4/cyfitter_cfg.c **** *   void
 204:Generated_Source\PSoC4/cyfitter_cfg.c **** *
 205:Generated_Source\PSoC4/cyfitter_cfg.c **** * Return:
 206:Generated_Source\PSoC4/cyfitter_cfg.c **** *   void
 207:Generated_Source\PSoC4/cyfitter_cfg.c **** *
 208:Generated_Source\PSoC4/cyfitter_cfg.c **** *******************************************************************************/
 209:Generated_Source\PSoC4/cyfitter_cfg.c **** static void ClockSetup(void);
 210:Generated_Source\PSoC4/cyfitter_cfg.c **** CY_CFG_SECTION
 211:Generated_Source\PSoC4/cyfitter_cfg.c **** static void ClockSetup(void)
 212:Generated_Source\PSoC4/cyfitter_cfg.c **** {
 213:Generated_Source\PSoC4/cyfitter_cfg.c **** 
 214:Generated_Source\PSoC4/cyfitter_cfg.c **** 	/* Set Flash Cycles based on max possible frequency in case a glitch occurs during ClockSetup(). *
 215:Generated_Source\PSoC4/cyfitter_cfg.c **** 	CY_SET_REG32((void CYXDATA *)(CYREG_CPUSS_FLASH_CTL), (0x0012u));
 216:Generated_Source\PSoC4/cyfitter_cfg.c **** 	/* Setup and trim IMO based on desired frequency. */
 217:Generated_Source\PSoC4/cyfitter_cfg.c **** 	CySysClkWriteImoFreq(48u);
 218:Generated_Source\PSoC4/cyfitter_cfg.c **** 	/* CYDEV_CLK_ILO_CONFIG Starting address: CYDEV_CLK_ILO_CONFIG */
 219:Generated_Source\PSoC4/cyfitter_cfg.c **** 	CY_SET_REG32((void *)(CYREG_CLK_ILO_CONFIG), 0x80000006u);
 220:Generated_Source\PSoC4/cyfitter_cfg.c **** 
 221:Generated_Source\PSoC4/cyfitter_cfg.c **** 
 222:Generated_Source\PSoC4/cyfitter_cfg.c **** 	/* Setup phase aligned clocks */
 223:Generated_Source\PSoC4/cyfitter_cfg.c **** 	CY_SET_REG32((void *)CYREG_PERI_DIV_16_CTL3, 0x00001700u);
 224:Generated_Source\PSoC4/cyfitter_cfg.c **** 	CY_SET_REG32((void *)CYREG_PERI_DIV_CMD, 0x8000FF43u);
 225:Generated_Source\PSoC4/cyfitter_cfg.c **** 	CY_SET_REG32((void *)CYREG_PERI_DIV_16_CTL1, 0x00000000u);
 226:Generated_Source\PSoC4/cyfitter_cfg.c **** 	CY_SET_REG32((void *)CYREG_PERI_DIV_CMD, 0x8000FF41u);
 227:Generated_Source\PSoC4/cyfitter_cfg.c **** 	CY_SET_REG32((void *)CYREG_PERI_DIV_16_CTL2, 0x00000000u);
 228:Generated_Source\PSoC4/cyfitter_cfg.c **** 	CY_SET_REG32((void *)CYREG_PERI_DIV_CMD, 0x8000FF42u);
 229:Generated_Source\PSoC4/cyfitter_cfg.c **** 	CY_SET_REG32((void *)CYREG_PERI_DIV_16_CTL0, 0x00000000u);
 230:Generated_Source\PSoC4/cyfitter_cfg.c **** 	CY_SET_REG32((void *)CYREG_PERI_DIV_CMD, 0x8000FF40u);
 231:Generated_Source\PSoC4/cyfitter_cfg.c **** 	CY_SET_REG32((void *)CYREG_PERI_DIV_16_CTL4, 0x00002200u);
 232:Generated_Source\PSoC4/cyfitter_cfg.c **** 	CY_SET_REG32((void *)CYREG_PERI_DIV_CMD, 0x8000FF44u);
 233:Generated_Source\PSoC4/cyfitter_cfg.c **** 
 234:Generated_Source\PSoC4/cyfitter_cfg.c **** 	/* CYDEV_CLK_IMO_CONFIG Starting address: CYDEV_CLK_IMO_CONFIG */
 235:Generated_Source\PSoC4/cyfitter_cfg.c **** 	CY_SET_REG32((void *)(CYREG_CLK_IMO_CONFIG), 0x80000000u);
 236:Generated_Source\PSoC4/cyfitter_cfg.c **** 
ARM GAS  C:\Users\PRAJWA~1\AppData\Local\Temp\ccU7CSc1.s 			page 7


 237:Generated_Source\PSoC4/cyfitter_cfg.c **** 	/* CYDEV_CLK_SELECT Starting address: CYDEV_CLK_SELECT */
 238:Generated_Source\PSoC4/cyfitter_cfg.c **** 	CY_SET_REG32((void *)(CYREG_CLK_SELECT), 0x00040000u);
 239:Generated_Source\PSoC4/cyfitter_cfg.c **** 
 240:Generated_Source\PSoC4/cyfitter_cfg.c **** 	/* CYDEV_PERI_PCLK_CTL19 Starting address: CYDEV_PERI_PCLK_CTL19 */
 241:Generated_Source\PSoC4/cyfitter_cfg.c **** 	CY_SET_REG32((void *)(CYREG_PERI_PCLK_CTL19), 0x00000043u);
 242:Generated_Source\PSoC4/cyfitter_cfg.c **** 
 243:Generated_Source\PSoC4/cyfitter_cfg.c **** 	/* CYDEV_PERI_PCLK_CTL13 Starting address: CYDEV_PERI_PCLK_CTL13 */
 244:Generated_Source\PSoC4/cyfitter_cfg.c **** 	CY_SET_REG32((void *)(CYREG_PERI_PCLK_CTL13), 0x00000041u);
 245:Generated_Source\PSoC4/cyfitter_cfg.c **** 
 246:Generated_Source\PSoC4/cyfitter_cfg.c **** 	/* CYDEV_PERI_PCLK_CTL12 Starting address: CYDEV_PERI_PCLK_CTL12 */
 247:Generated_Source\PSoC4/cyfitter_cfg.c **** 	CY_SET_REG32((void *)(CYREG_PERI_PCLK_CTL12), 0x00000042u);
 248:Generated_Source\PSoC4/cyfitter_cfg.c **** 
 249:Generated_Source\PSoC4/cyfitter_cfg.c **** 	/* CYDEV_PERI_PCLK_CTL11 Starting address: CYDEV_PERI_PCLK_CTL11 */
 250:Generated_Source\PSoC4/cyfitter_cfg.c **** 	CY_SET_REG32((void *)(CYREG_PERI_PCLK_CTL11), 0x00000040u);
 251:Generated_Source\PSoC4/cyfitter_cfg.c **** 
 252:Generated_Source\PSoC4/cyfitter_cfg.c **** 	/* CYDEV_PERI_PCLK_CTL4 Starting address: CYDEV_PERI_PCLK_CTL4 */
 253:Generated_Source\PSoC4/cyfitter_cfg.c **** 	CY_SET_REG32((void *)(CYREG_PERI_PCLK_CTL4), 0x00000044u);
 254:Generated_Source\PSoC4/cyfitter_cfg.c **** 
 255:Generated_Source\PSoC4/cyfitter_cfg.c **** 	(void)CyIntSetVector(7u, &CySysWdtIsr);
 256:Generated_Source\PSoC4/cyfitter_cfg.c **** 	CyIntEnable(7u);
 257:Generated_Source\PSoC4/cyfitter_cfg.c **** 	CY_SET_REG32((void *)(CYREG_WDT_CONFIG), 0x00000000u);
 258:Generated_Source\PSoC4/cyfitter_cfg.c **** }
 259:Generated_Source\PSoC4/cyfitter_cfg.c **** 
 260:Generated_Source\PSoC4/cyfitter_cfg.c **** 
 261:Generated_Source\PSoC4/cyfitter_cfg.c **** /* Analog API Functions */
 262:Generated_Source\PSoC4/cyfitter_cfg.c **** 
 263:Generated_Source\PSoC4/cyfitter_cfg.c **** 
 264:Generated_Source\PSoC4/cyfitter_cfg.c **** /*******************************************************************************
 265:Generated_Source\PSoC4/cyfitter_cfg.c **** * Function Name: AnalogSetDefault
 266:Generated_Source\PSoC4/cyfitter_cfg.c **** ********************************************************************************
 267:Generated_Source\PSoC4/cyfitter_cfg.c **** *
 268:Generated_Source\PSoC4/cyfitter_cfg.c **** * Summary:
 269:Generated_Source\PSoC4/cyfitter_cfg.c **** *  Sets up the analog portions of the chip to default values based on chip
 270:Generated_Source\PSoC4/cyfitter_cfg.c **** *  configuration options from the project.
 271:Generated_Source\PSoC4/cyfitter_cfg.c **** *
 272:Generated_Source\PSoC4/cyfitter_cfg.c **** * Parameters:
 273:Generated_Source\PSoC4/cyfitter_cfg.c **** *  void
 274:Generated_Source\PSoC4/cyfitter_cfg.c **** *
 275:Generated_Source\PSoC4/cyfitter_cfg.c **** * Return:
 276:Generated_Source\PSoC4/cyfitter_cfg.c **** *  void
 277:Generated_Source\PSoC4/cyfitter_cfg.c **** *
 278:Generated_Source\PSoC4/cyfitter_cfg.c **** *******************************************************************************/
 279:Generated_Source\PSoC4/cyfitter_cfg.c **** static void AnalogSetDefault(void);
 280:Generated_Source\PSoC4/cyfitter_cfg.c **** static void AnalogSetDefault(void)
 281:Generated_Source\PSoC4/cyfitter_cfg.c **** {
 104              		.loc 1 281 0
 105              		.cfi_startproc
 106              		@ args = 0, pretend = 0, frame = 0
 107              		@ frame_needed = 0, uses_anonymous_args = 0
 108              		@ link register save eliminated.
 282:Generated_Source\PSoC4/cyfitter_cfg.c **** 	CY_SET_XTND_REG32((void CYFAR *)CYREG_CTBM0_DFT_CTRL, 0x00000003u);
 109              		.loc 1 282 0
 110 0000 0323     		movs	r3, #3
 111 0002 044A     		ldr	r2, .L7
 112 0004 1360     		str	r3, [r2]
 283:Generated_Source\PSoC4/cyfitter_cfg.c **** 	CY_SET_XTND_REG32((void CYFAR *)CYREG_CTBM1_DFT_CTRL, 0x00000003u);
 113              		.loc 1 283 0
ARM GAS  C:\Users\PRAJWA~1\AppData\Local\Temp\ccU7CSc1.s 			page 8


 114 0006 044A     		ldr	r2, .L7+4
 115 0008 1360     		str	r3, [r2]
 284:Generated_Source\PSoC4/cyfitter_cfg.c **** 	CY_SET_XTND_REG32((void CYFAR *)CYREG_PASS_DSAB_DSAB_CTRL, 0x00000000u);
 116              		.loc 1 284 0
 117 000a 0022     		movs	r2, #0
 118 000c 034B     		ldr	r3, .L7+8
 119 000e 1A60     		str	r2, [r3]
 285:Generated_Source\PSoC4/cyfitter_cfg.c **** }
 120              		.loc 1 285 0
 121              		@ sp needed
 122 0010 7047     		bx	lr
 123              	.L8:
 124 0012 C046     		.align	2
 125              	.L7:
 126 0014 30003040 		.word	1076887600
 127 0018 30003140 		.word	1076953136
 128 001c 000E3F40 		.word	1077874176
 129              		.cfi_endproc
 130              	.LFE6:
 131              		.size	AnalogSetDefault, .-AnalogSetDefault
 132              		.section	.text.CYMEMZERO,"ax",%progbits
 133              		.align	2
 134              		.code	16
 135              		.thumb_func
 136              		.type	CYMEMZERO, %function
 137              	CYMEMZERO:
 138              	.LFB1:
  77:Generated_Source\PSoC4/cyfitter_cfg.c **** 	(void)memset(s, 0, n);
 139              		.loc 1 77 0
 140              		.cfi_startproc
 141              		@ args = 0, pretend = 0, frame = 0
 142              		@ frame_needed = 0, uses_anonymous_args = 0
 143              	.LVL12:
 144 0000 10B5     		push	{r4, lr}
 145              		.cfi_def_cfa_offset 8
 146              		.cfi_offset 4, -8
 147              		.cfi_offset 14, -4
 148 0002 0A00     		movs	r2, r1
  78:Generated_Source\PSoC4/cyfitter_cfg.c **** }
 149              		.loc 1 78 0
 150 0004 0021     		movs	r1, #0
 151              	.LVL13:
 152 0006 FFF7FEFF 		bl	memset
 153              	.LVL14:
  79:Generated_Source\PSoC4/cyfitter_cfg.c **** CY_CFG_UNUSED
 154              		.loc 1 79 0
 155              		@ sp needed
 156 000a 10BD     		pop	{r4, pc}
 157              		.cfi_endproc
 158              	.LFE1:
 159              		.size	CYMEMZERO, .-CYMEMZERO
 160              		.section	.psocinit,"ax",%progbits
 161              		.align	2
 162              		.code	16
 163              		.thumb_func
 164              		.type	ClockSetup, %function
 165              	ClockSetup:
ARM GAS  C:\Users\PRAJWA~1\AppData\Local\Temp\ccU7CSc1.s 			page 9


 166              	.LFB5:
 212:Generated_Source\PSoC4/cyfitter_cfg.c **** 
 167              		.loc 1 212 0
 168              		.cfi_startproc
 169              		@ args = 0, pretend = 0, frame = 0
 170              		@ frame_needed = 0, uses_anonymous_args = 0
 171 0000 10B5     		push	{r4, lr}
 172              		.cfi_def_cfa_offset 8
 173              		.cfi_offset 4, -8
 174              		.cfi_offset 14, -4
 215:Generated_Source\PSoC4/cyfitter_cfg.c **** 	/* Setup and trim IMO based on desired frequency. */
 175              		.loc 1 215 0
 176 0002 1222     		movs	r2, #18
 177 0004 214B     		ldr	r3, .L11
 178 0006 1A60     		str	r2, [r3]
 217:Generated_Source\PSoC4/cyfitter_cfg.c **** 	/* CYDEV_CLK_ILO_CONFIG Starting address: CYDEV_CLK_ILO_CONFIG */
 179              		.loc 1 217 0
 180 0008 3020     		movs	r0, #48
 181 000a FFF7FEFF 		bl	CySysClkWriteImoFreq
 182              	.LVL15:
 219:Generated_Source\PSoC4/cyfitter_cfg.c **** 
 183              		.loc 1 219 0
 184 000e 204A     		ldr	r2, .L11+4
 185 0010 204B     		ldr	r3, .L11+8
 186 0012 1A60     		str	r2, [r3]
 223:Generated_Source\PSoC4/cyfitter_cfg.c **** 	CY_SET_REG32((void *)CYREG_PERI_DIV_CMD, 0x8000FF43u);
 187              		.loc 1 223 0
 188 0014 B822     		movs	r2, #184
 189 0016 5201     		lsls	r2, r2, #5
 190 0018 1F4B     		ldr	r3, .L11+12
 191 001a 1A60     		str	r2, [r3]
 224:Generated_Source\PSoC4/cyfitter_cfg.c **** 	CY_SET_REG32((void *)CYREG_PERI_DIV_16_CTL1, 0x00000000u);
 192              		.loc 1 224 0
 193 001c 1F4B     		ldr	r3, .L11+16
 194 001e 204A     		ldr	r2, .L11+20
 195 0020 1A60     		str	r2, [r3]
 225:Generated_Source\PSoC4/cyfitter_cfg.c **** 	CY_SET_REG32((void *)CYREG_PERI_DIV_CMD, 0x8000FF41u);
 196              		.loc 1 225 0
 197 0022 0024     		movs	r4, #0
 198 0024 1F4A     		ldr	r2, .L11+24
 199 0026 1460     		str	r4, [r2]
 226:Generated_Source\PSoC4/cyfitter_cfg.c **** 	CY_SET_REG32((void *)CYREG_PERI_DIV_16_CTL2, 0x00000000u);
 200              		.loc 1 226 0
 201 0028 1F4A     		ldr	r2, .L11+28
 202 002a 1A60     		str	r2, [r3]
 227:Generated_Source\PSoC4/cyfitter_cfg.c **** 	CY_SET_REG32((void *)CYREG_PERI_DIV_CMD, 0x8000FF42u);
 203              		.loc 1 227 0
 204 002c 1F4A     		ldr	r2, .L11+32
 205 002e 1460     		str	r4, [r2]
 228:Generated_Source\PSoC4/cyfitter_cfg.c **** 	CY_SET_REG32((void *)CYREG_PERI_DIV_16_CTL0, 0x00000000u);
 206              		.loc 1 228 0
 207 0030 1F4A     		ldr	r2, .L11+36
 208 0032 1A60     		str	r2, [r3]
 229:Generated_Source\PSoC4/cyfitter_cfg.c **** 	CY_SET_REG32((void *)CYREG_PERI_DIV_CMD, 0x8000FF40u);
 209              		.loc 1 229 0
 210 0034 1F4A     		ldr	r2, .L11+40
 211 0036 1460     		str	r4, [r2]
ARM GAS  C:\Users\PRAJWA~1\AppData\Local\Temp\ccU7CSc1.s 			page 10


 230:Generated_Source\PSoC4/cyfitter_cfg.c **** 	CY_SET_REG32((void *)CYREG_PERI_DIV_16_CTL4, 0x00002200u);
 212              		.loc 1 230 0
 213 0038 1F4A     		ldr	r2, .L11+44
 214 003a 1A60     		str	r2, [r3]
 231:Generated_Source\PSoC4/cyfitter_cfg.c **** 	CY_SET_REG32((void *)CYREG_PERI_DIV_CMD, 0x8000FF44u);
 215              		.loc 1 231 0
 216 003c 8821     		movs	r1, #136
 217 003e 8901     		lsls	r1, r1, #6
 218 0040 1E4A     		ldr	r2, .L11+48
 219 0042 1160     		str	r1, [r2]
 232:Generated_Source\PSoC4/cyfitter_cfg.c **** 
 220              		.loc 1 232 0
 221 0044 1E4A     		ldr	r2, .L11+52
 222 0046 1A60     		str	r2, [r3]
 235:Generated_Source\PSoC4/cyfitter_cfg.c **** 
 223              		.loc 1 235 0
 224 0048 8022     		movs	r2, #128
 225 004a 1206     		lsls	r2, r2, #24
 226 004c 1D4B     		ldr	r3, .L11+56
 227 004e 1A60     		str	r2, [r3]
 238:Generated_Source\PSoC4/cyfitter_cfg.c **** 
 228              		.loc 1 238 0
 229 0050 8022     		movs	r2, #128
 230 0052 D202     		lsls	r2, r2, #11
 231 0054 1C4B     		ldr	r3, .L11+60
 232 0056 1A60     		str	r2, [r3]
 241:Generated_Source\PSoC4/cyfitter_cfg.c **** 
 233              		.loc 1 241 0
 234 0058 4322     		movs	r2, #67
 235 005a 1C4B     		ldr	r3, .L11+64
 236 005c 1A60     		str	r2, [r3]
 244:Generated_Source\PSoC4/cyfitter_cfg.c **** 
 237              		.loc 1 244 0
 238 005e 023A     		subs	r2, r2, #2
 239 0060 1B4B     		ldr	r3, .L11+68
 240 0062 1A60     		str	r2, [r3]
 247:Generated_Source\PSoC4/cyfitter_cfg.c **** 
 241              		.loc 1 247 0
 242 0064 0132     		adds	r2, r2, #1
 243 0066 1B4B     		ldr	r3, .L11+72
 244 0068 1A60     		str	r2, [r3]
 250:Generated_Source\PSoC4/cyfitter_cfg.c **** 
 245              		.loc 1 250 0
 246 006a 023A     		subs	r2, r2, #2
 247 006c 1A4B     		ldr	r3, .L11+76
 248 006e 1A60     		str	r2, [r3]
 253:Generated_Source\PSoC4/cyfitter_cfg.c **** 
 249              		.loc 1 253 0
 250 0070 0432     		adds	r2, r2, #4
 251 0072 1A4B     		ldr	r3, .L11+80
 252 0074 1A60     		str	r2, [r3]
 255:Generated_Source\PSoC4/cyfitter_cfg.c **** 	CyIntEnable(7u);
 253              		.loc 1 255 0
 254 0076 1A49     		ldr	r1, .L11+84
 255 0078 0720     		movs	r0, #7
 256 007a FFF7FEFF 		bl	CyIntSetVector
 257              	.LVL16:
ARM GAS  C:\Users\PRAJWA~1\AppData\Local\Temp\ccU7CSc1.s 			page 11


 256:Generated_Source\PSoC4/cyfitter_cfg.c **** 	CY_SET_REG32((void *)(CYREG_WDT_CONFIG), 0x00000000u);
 258              		.loc 1 256 0
 259 007e 0720     		movs	r0, #7
 260 0080 FFF7FEFF 		bl	CyIntEnable
 261              	.LVL17:
 257:Generated_Source\PSoC4/cyfitter_cfg.c **** }
 262              		.loc 1 257 0
 263 0084 174B     		ldr	r3, .L11+88
 264 0086 1C60     		str	r4, [r3]
 258:Generated_Source\PSoC4/cyfitter_cfg.c **** 
 265              		.loc 1 258 0
 266              		@ sp needed
 267 0088 10BD     		pop	{r4, pc}
 268              	.L12:
 269 008a C046     		.align	2
 270              	.L11:
 271 008c 30001040 		.word	1074790448
 272 0090 06000080 		.word	-2147483642
 273 0094 04010B40 		.word	1074462980
 274 0098 0C030140 		.word	1073808140
 275 009c 00000140 		.word	1073807360
 276 00a0 43FF0080 		.word	-2147418301
 277 00a4 04030140 		.word	1073808132
 278 00a8 41FF0080 		.word	-2147418303
 279 00ac 08030140 		.word	1073808136
 280 00b0 42FF0080 		.word	-2147418302
 281 00b4 00030140 		.word	1073808128
 282 00b8 40FF0080 		.word	-2147418304
 283 00bc 10030140 		.word	1073808144
 284 00c0 44FF0080 		.word	-2147418300
 285 00c4 08010B40 		.word	1074462984
 286 00c8 00010B40 		.word	1074462976
 287 00cc 4C010140 		.word	1073807692
 288 00d0 34010140 		.word	1073807668
 289 00d4 30010140 		.word	1073807664
 290 00d8 2C010140 		.word	1073807660
 291 00dc 10010140 		.word	1073807632
 292 00e0 00000000 		.word	CySysWdtIsr
 293 00e4 0C020B40 		.word	1074463244
 294              		.cfi_endproc
 295              	.LFE5:
 296              		.size	ClockSetup, .-ClockSetup
 297              		.align	2
 298              		.global	cyfitter_cfg
 299              		.code	16
 300              		.thumb_func
 301              		.type	cyfitter_cfg, %function
 302              	cyfitter_cfg:
 303              	.LFB7:
 286:Generated_Source\PSoC4/cyfitter_cfg.c **** 
 287:Generated_Source\PSoC4/cyfitter_cfg.c **** 
 288:Generated_Source\PSoC4/cyfitter_cfg.c **** 
 289:Generated_Source\PSoC4/cyfitter_cfg.c **** 
 290:Generated_Source\PSoC4/cyfitter_cfg.c **** /*******************************************************************************
 291:Generated_Source\PSoC4/cyfitter_cfg.c **** * Function Name: cyfitter_cfg
 292:Generated_Source\PSoC4/cyfitter_cfg.c **** ********************************************************************************
 293:Generated_Source\PSoC4/cyfitter_cfg.c **** * Summary:
ARM GAS  C:\Users\PRAJWA~1\AppData\Local\Temp\ccU7CSc1.s 			page 12


 294:Generated_Source\PSoC4/cyfitter_cfg.c **** *  This function is called by the start-up code for the selected device. It
 295:Generated_Source\PSoC4/cyfitter_cfg.c **** *  performs all of the necessary device configuration based on the design
 296:Generated_Source\PSoC4/cyfitter_cfg.c **** *  settings.  This includes settings from the Design Wide Resources (DWR) such
 297:Generated_Source\PSoC4/cyfitter_cfg.c **** *  as Clocks and Pins as well as any component configuration that is necessary.
 298:Generated_Source\PSoC4/cyfitter_cfg.c **** *
 299:Generated_Source\PSoC4/cyfitter_cfg.c **** * Parameters:
 300:Generated_Source\PSoC4/cyfitter_cfg.c **** *   void
 301:Generated_Source\PSoC4/cyfitter_cfg.c **** *
 302:Generated_Source\PSoC4/cyfitter_cfg.c **** * Return:
 303:Generated_Source\PSoC4/cyfitter_cfg.c **** *   void
 304:Generated_Source\PSoC4/cyfitter_cfg.c **** *
 305:Generated_Source\PSoC4/cyfitter_cfg.c **** *******************************************************************************/
 306:Generated_Source\PSoC4/cyfitter_cfg.c **** CY_CFG_SECTION
 307:Generated_Source\PSoC4/cyfitter_cfg.c **** void cyfitter_cfg(void)
 308:Generated_Source\PSoC4/cyfitter_cfg.c **** {
 304              		.loc 1 308 0
 305              		.cfi_startproc
 306              		@ args = 0, pretend = 0, frame = 0
 307              		@ frame_needed = 0, uses_anonymous_args = 0
 308 00e8 10B5     		push	{r4, lr}
 309              		.cfi_def_cfa_offset 8
 310              		.cfi_offset 4, -8
 311              		.cfi_offset 14, -4
 309:Generated_Source\PSoC4/cyfitter_cfg.c **** 	/* Disable interrupts by default. Let user enable if/when they want. */
 310:Generated_Source\PSoC4/cyfitter_cfg.c **** 	CyGlobalIntDisable;
 312              		.loc 1 310 0
 313              		.syntax divided
 314              	@ 310 "Generated_Source\PSoC4\cyfitter_cfg.c" 1
 315 00ea 72B6     		CPSID   i
 316              	@ 0 "" 2
 311:Generated_Source\PSoC4/cyfitter_cfg.c **** 
 312:Generated_Source\PSoC4/cyfitter_cfg.c **** 	/* Enable the clock in the interrupt controller for the routed interrupts */
 313:Generated_Source\PSoC4/cyfitter_cfg.c **** 	CY_SET_REG8((void *)CYREG_UDB_UDBIF_INT_CLK_CTL, 0x01u);
 317              		.loc 1 313 0
 318              		.thumb
 319              		.syntax unified
 320 00ec 0122     		movs	r2, #1
 321 00ee 354B     		ldr	r3, .L16
 322 00f0 1A70     		strb	r2, [r3]
 323              	.LVL18:
 324              	.LBB3:
 314:Generated_Source\PSoC4/cyfitter_cfg.c **** 	{
 315:Generated_Source\PSoC4/cyfitter_cfg.c **** 		static const uint32 CYCODE cy_cfg_addr_table[] = {
 316:Generated_Source\PSoC4/cyfitter_cfg.c **** 			0x400F0001u, /* Base address: 0x400F0000 Count: 1 */
 317:Generated_Source\PSoC4/cyfitter_cfg.c **** 			0x400F3048u, /* Base address: 0x400F3000 Count: 72 */
 318:Generated_Source\PSoC4/cyfitter_cfg.c **** 			0x400F3124u, /* Base address: 0x400F3100 Count: 36 */
 319:Generated_Source\PSoC4/cyfitter_cfg.c **** 			0x400F3244u, /* Base address: 0x400F3200 Count: 68 */
 320:Generated_Source\PSoC4/cyfitter_cfg.c **** 			0x400F3327u, /* Base address: 0x400F3300 Count: 39 */
 321:Generated_Source\PSoC4/cyfitter_cfg.c **** 			0x400F4012u, /* Base address: 0x400F4000 Count: 18 */
 322:Generated_Source\PSoC4/cyfitter_cfg.c **** 			0x400F4104u, /* Base address: 0x400F4100 Count: 4 */
 323:Generated_Source\PSoC4/cyfitter_cfg.c **** 			0x400F6002u, /* Base address: 0x400F6000 Count: 2 */
 324:Generated_Source\PSoC4/cyfitter_cfg.c **** 		};
 325:Generated_Source\PSoC4/cyfitter_cfg.c **** 
 326:Generated_Source\PSoC4/cyfitter_cfg.c **** 		static const cy_cfg_addrvalue_t CYCODE cy_cfg_data_table[] = {
 327:Generated_Source\PSoC4/cyfitter_cfg.c **** 			{0x83u, 0x67u},
 328:Generated_Source\PSoC4/cyfitter_cfg.c **** 			{0x0Eu, 0x03u},
 329:Generated_Source\PSoC4/cyfitter_cfg.c **** 			{0x14u, 0x04u},
ARM GAS  C:\Users\PRAJWA~1\AppData\Local\Temp\ccU7CSc1.s 			page 13


 330:Generated_Source\PSoC4/cyfitter_cfg.c **** 			{0x1Au, 0x0Cu},
 331:Generated_Source\PSoC4/cyfitter_cfg.c **** 			{0x1Cu, 0x01u},
 332:Generated_Source\PSoC4/cyfitter_cfg.c **** 			{0x2Eu, 0x01u},
 333:Generated_Source\PSoC4/cyfitter_cfg.c **** 			{0x30u, 0x04u},
 334:Generated_Source\PSoC4/cyfitter_cfg.c **** 			{0x32u, 0x08u},
 335:Generated_Source\PSoC4/cyfitter_cfg.c **** 			{0x34u, 0x01u},
 336:Generated_Source\PSoC4/cyfitter_cfg.c **** 			{0x36u, 0x02u},
 337:Generated_Source\PSoC4/cyfitter_cfg.c **** 			{0x38u, 0x02u},
 338:Generated_Source\PSoC4/cyfitter_cfg.c **** 			{0x39u, 0x20u},
 339:Generated_Source\PSoC4/cyfitter_cfg.c **** 			{0x3Au, 0x08u},
 340:Generated_Source\PSoC4/cyfitter_cfg.c **** 			{0x3Eu, 0x10u},
 341:Generated_Source\PSoC4/cyfitter_cfg.c **** 			{0x40u, 0x24u},
 342:Generated_Source\PSoC4/cyfitter_cfg.c **** 			{0x41u, 0x06u},
 343:Generated_Source\PSoC4/cyfitter_cfg.c **** 			{0x49u, 0xFFu},
 344:Generated_Source\PSoC4/cyfitter_cfg.c **** 			{0x4Au, 0xFFu},
 345:Generated_Source\PSoC4/cyfitter_cfg.c **** 			{0x4Bu, 0xFFu},
 346:Generated_Source\PSoC4/cyfitter_cfg.c **** 			{0x4Du, 0xA0u},
 347:Generated_Source\PSoC4/cyfitter_cfg.c **** 			{0x4Fu, 0x01u},
 348:Generated_Source\PSoC4/cyfitter_cfg.c **** 			{0x50u, 0x18u},
 349:Generated_Source\PSoC4/cyfitter_cfg.c **** 			{0x52u, 0x80u},
 350:Generated_Source\PSoC4/cyfitter_cfg.c **** 			{0x58u, 0x04u},
 351:Generated_Source\PSoC4/cyfitter_cfg.c **** 			{0x59u, 0x04u},
 352:Generated_Source\PSoC4/cyfitter_cfg.c **** 			{0x5Au, 0x04u},
 353:Generated_Source\PSoC4/cyfitter_cfg.c **** 			{0x5Bu, 0x04u},
 354:Generated_Source\PSoC4/cyfitter_cfg.c **** 			{0x5Fu, 0x01u},
 355:Generated_Source\PSoC4/cyfitter_cfg.c **** 			{0x60u, 0x40u},
 356:Generated_Source\PSoC4/cyfitter_cfg.c **** 			{0x62u, 0x80u},
 357:Generated_Source\PSoC4/cyfitter_cfg.c **** 			{0x64u, 0x40u},
 358:Generated_Source\PSoC4/cyfitter_cfg.c **** 			{0x65u, 0x40u},
 359:Generated_Source\PSoC4/cyfitter_cfg.c **** 			{0x66u, 0x80u},
 360:Generated_Source\PSoC4/cyfitter_cfg.c **** 			{0x68u, 0x40u},
 361:Generated_Source\PSoC4/cyfitter_cfg.c **** 			{0x6Au, 0x50u},
 362:Generated_Source\PSoC4/cyfitter_cfg.c **** 			{0x6Bu, 0xA8u},
 363:Generated_Source\PSoC4/cyfitter_cfg.c **** 			{0x6Cu, 0x40u},
 364:Generated_Source\PSoC4/cyfitter_cfg.c **** 			{0x6Du, 0x20u},
 365:Generated_Source\PSoC4/cyfitter_cfg.c **** 			{0x6Eu, 0x50u},
 366:Generated_Source\PSoC4/cyfitter_cfg.c **** 			{0x6Fu, 0xA8u},
 367:Generated_Source\PSoC4/cyfitter_cfg.c **** 			{0x88u, 0x01u},
 368:Generated_Source\PSoC4/cyfitter_cfg.c **** 			{0x8Cu, 0x02u},
 369:Generated_Source\PSoC4/cyfitter_cfg.c **** 			{0xADu, 0x01u},
 370:Generated_Source\PSoC4/cyfitter_cfg.c **** 			{0xB0u, 0x01u},
 371:Generated_Source\PSoC4/cyfitter_cfg.c **** 			{0xB1u, 0x01u},
 372:Generated_Source\PSoC4/cyfitter_cfg.c **** 			{0xB2u, 0x02u},
 373:Generated_Source\PSoC4/cyfitter_cfg.c **** 			{0xBEu, 0x05u},
 374:Generated_Source\PSoC4/cyfitter_cfg.c **** 			{0xBFu, 0x01u},
 375:Generated_Source\PSoC4/cyfitter_cfg.c **** 			{0xC0u, 0x65u},
 376:Generated_Source\PSoC4/cyfitter_cfg.c **** 			{0xC1u, 0x03u},
 377:Generated_Source\PSoC4/cyfitter_cfg.c **** 			{0xC9u, 0xFFu},
 378:Generated_Source\PSoC4/cyfitter_cfg.c **** 			{0xCAu, 0xFFu},
 379:Generated_Source\PSoC4/cyfitter_cfg.c **** 			{0xCBu, 0xFFu},
 380:Generated_Source\PSoC4/cyfitter_cfg.c **** 			{0xCDu, 0xAFu},
 381:Generated_Source\PSoC4/cyfitter_cfg.c **** 			{0xCEu, 0x07u},
 382:Generated_Source\PSoC4/cyfitter_cfg.c **** 			{0xCFu, 0x01u},
 383:Generated_Source\PSoC4/cyfitter_cfg.c **** 			{0xD0u, 0x18u},
 384:Generated_Source\PSoC4/cyfitter_cfg.c **** 			{0xD8u, 0x04u},
 385:Generated_Source\PSoC4/cyfitter_cfg.c **** 			{0xD9u, 0x04u},
 386:Generated_Source\PSoC4/cyfitter_cfg.c **** 			{0xDAu, 0x04u},
ARM GAS  C:\Users\PRAJWA~1\AppData\Local\Temp\ccU7CSc1.s 			page 14


 387:Generated_Source\PSoC4/cyfitter_cfg.c **** 			{0xDFu, 0x01u},
 388:Generated_Source\PSoC4/cyfitter_cfg.c **** 			{0xE0u, 0x40u},
 389:Generated_Source\PSoC4/cyfitter_cfg.c **** 			{0xE2u, 0x80u},
 390:Generated_Source\PSoC4/cyfitter_cfg.c **** 			{0xE4u, 0x40u},
 391:Generated_Source\PSoC4/cyfitter_cfg.c **** 			{0xE5u, 0x40u},
 392:Generated_Source\PSoC4/cyfitter_cfg.c **** 			{0xE6u, 0x80u},
 393:Generated_Source\PSoC4/cyfitter_cfg.c **** 			{0xE8u, 0x40u},
 394:Generated_Source\PSoC4/cyfitter_cfg.c **** 			{0xEAu, 0x50u},
 395:Generated_Source\PSoC4/cyfitter_cfg.c **** 			{0xEBu, 0xA8u},
 396:Generated_Source\PSoC4/cyfitter_cfg.c **** 			{0xECu, 0x40u},
 397:Generated_Source\PSoC4/cyfitter_cfg.c **** 			{0xEDu, 0x20u},
 398:Generated_Source\PSoC4/cyfitter_cfg.c **** 			{0xEEu, 0x50u},
 399:Generated_Source\PSoC4/cyfitter_cfg.c **** 			{0xEFu, 0xA8u},
 400:Generated_Source\PSoC4/cyfitter_cfg.c **** 			{0x00u, 0x40u},
 401:Generated_Source\PSoC4/cyfitter_cfg.c **** 			{0x04u, 0x20u},
 402:Generated_Source\PSoC4/cyfitter_cfg.c **** 			{0x05u, 0x40u},
 403:Generated_Source\PSoC4/cyfitter_cfg.c **** 			{0x09u, 0x20u},
 404:Generated_Source\PSoC4/cyfitter_cfg.c **** 			{0x0Au, 0x21u},
 405:Generated_Source\PSoC4/cyfitter_cfg.c **** 			{0x10u, 0x02u},
 406:Generated_Source\PSoC4/cyfitter_cfg.c **** 			{0x18u, 0x44u},
 407:Generated_Source\PSoC4/cyfitter_cfg.c **** 			{0x1Au, 0x21u},
 408:Generated_Source\PSoC4/cyfitter_cfg.c **** 			{0x1Bu, 0x10u},
 409:Generated_Source\PSoC4/cyfitter_cfg.c **** 			{0x1Du, 0x01u},
 410:Generated_Source\PSoC4/cyfitter_cfg.c **** 			{0x1Eu, 0x10u},
 411:Generated_Source\PSoC4/cyfitter_cfg.c **** 			{0x21u, 0x20u},
 412:Generated_Source\PSoC4/cyfitter_cfg.c **** 			{0x27u, 0x80u},
 413:Generated_Source\PSoC4/cyfitter_cfg.c **** 			{0x2Eu, 0x80u},
 414:Generated_Source\PSoC4/cyfitter_cfg.c **** 			{0x36u, 0x04u},
 415:Generated_Source\PSoC4/cyfitter_cfg.c **** 			{0x37u, 0x08u},
 416:Generated_Source\PSoC4/cyfitter_cfg.c **** 			{0x40u, 0x04u},
 417:Generated_Source\PSoC4/cyfitter_cfg.c **** 			{0x41u, 0x01u},
 418:Generated_Source\PSoC4/cyfitter_cfg.c **** 			{0x47u, 0x08u},
 419:Generated_Source\PSoC4/cyfitter_cfg.c **** 			{0x4Au, 0x04u},
 420:Generated_Source\PSoC4/cyfitter_cfg.c **** 			{0x4Eu, 0x02u},
 421:Generated_Source\PSoC4/cyfitter_cfg.c **** 			{0x4Fu, 0x20u},
 422:Generated_Source\PSoC4/cyfitter_cfg.c **** 			{0x70u, 0x02u},
 423:Generated_Source\PSoC4/cyfitter_cfg.c **** 			{0x81u, 0x01u},
 424:Generated_Source\PSoC4/cyfitter_cfg.c **** 			{0x82u, 0x10u},
 425:Generated_Source\PSoC4/cyfitter_cfg.c **** 			{0x87u, 0x80u},
 426:Generated_Source\PSoC4/cyfitter_cfg.c **** 			{0x89u, 0x40u},
 427:Generated_Source\PSoC4/cyfitter_cfg.c **** 			{0x8Cu, 0x10u},
 428:Generated_Source\PSoC4/cyfitter_cfg.c **** 			{0xC0u, 0xC1u},
 429:Generated_Source\PSoC4/cyfitter_cfg.c **** 			{0xC2u, 0x07u},
 430:Generated_Source\PSoC4/cyfitter_cfg.c **** 			{0xC4u, 0x01u},
 431:Generated_Source\PSoC4/cyfitter_cfg.c **** 			{0xCAu, 0x10u},
 432:Generated_Source\PSoC4/cyfitter_cfg.c **** 			{0xD0u, 0x45u},
 433:Generated_Source\PSoC4/cyfitter_cfg.c **** 			{0xD2u, 0x34u},
 434:Generated_Source\PSoC4/cyfitter_cfg.c **** 			{0xE0u, 0x80u},
 435:Generated_Source\PSoC4/cyfitter_cfg.c **** 			{0xE4u, 0x40u},
 436:Generated_Source\PSoC4/cyfitter_cfg.c **** 			{0x38u, 0x20u},
 437:Generated_Source\PSoC4/cyfitter_cfg.c **** 			{0x3Eu, 0x10u},
 438:Generated_Source\PSoC4/cyfitter_cfg.c **** 			{0x40u, 0x65u},
 439:Generated_Source\PSoC4/cyfitter_cfg.c **** 			{0x41u, 0x03u},
 440:Generated_Source\PSoC4/cyfitter_cfg.c **** 			{0x49u, 0xFFu},
 441:Generated_Source\PSoC4/cyfitter_cfg.c **** 			{0x4Au, 0xFFu},
 442:Generated_Source\PSoC4/cyfitter_cfg.c **** 			{0x4Bu, 0xFFu},
 443:Generated_Source\PSoC4/cyfitter_cfg.c **** 			{0x4Du, 0xAFu},
ARM GAS  C:\Users\PRAJWA~1\AppData\Local\Temp\ccU7CSc1.s 			page 15


 444:Generated_Source\PSoC4/cyfitter_cfg.c **** 			{0x4Eu, 0x07u},
 445:Generated_Source\PSoC4/cyfitter_cfg.c **** 			{0x4Fu, 0x01u},
 446:Generated_Source\PSoC4/cyfitter_cfg.c **** 			{0x50u, 0x18u},
 447:Generated_Source\PSoC4/cyfitter_cfg.c **** 			{0x58u, 0x04u},
 448:Generated_Source\PSoC4/cyfitter_cfg.c **** 			{0x5Au, 0x04u},
 449:Generated_Source\PSoC4/cyfitter_cfg.c **** 			{0x5Fu, 0x01u},
 450:Generated_Source\PSoC4/cyfitter_cfg.c **** 			{0x60u, 0x40u},
 451:Generated_Source\PSoC4/cyfitter_cfg.c **** 			{0x62u, 0x80u},
 452:Generated_Source\PSoC4/cyfitter_cfg.c **** 			{0x64u, 0x40u},
 453:Generated_Source\PSoC4/cyfitter_cfg.c **** 			{0x65u, 0x40u},
 454:Generated_Source\PSoC4/cyfitter_cfg.c **** 			{0x66u, 0x80u},
 455:Generated_Source\PSoC4/cyfitter_cfg.c **** 			{0x68u, 0x40u},
 456:Generated_Source\PSoC4/cyfitter_cfg.c **** 			{0x6Au, 0x50u},
 457:Generated_Source\PSoC4/cyfitter_cfg.c **** 			{0x6Bu, 0xA8u},
 458:Generated_Source\PSoC4/cyfitter_cfg.c **** 			{0x6Cu, 0x40u},
 459:Generated_Source\PSoC4/cyfitter_cfg.c **** 			{0x6Du, 0x20u},
 460:Generated_Source\PSoC4/cyfitter_cfg.c **** 			{0x6Eu, 0x50u},
 461:Generated_Source\PSoC4/cyfitter_cfg.c **** 			{0x6Fu, 0xA8u},
 462:Generated_Source\PSoC4/cyfitter_cfg.c **** 			{0x80u, 0x02u},
 463:Generated_Source\PSoC4/cyfitter_cfg.c **** 			{0x83u, 0x03u},
 464:Generated_Source\PSoC4/cyfitter_cfg.c **** 			{0x91u, 0x02u},
 465:Generated_Source\PSoC4/cyfitter_cfg.c **** 			{0xA6u, 0x03u},
 466:Generated_Source\PSoC4/cyfitter_cfg.c **** 			{0xB0u, 0x01u},
 467:Generated_Source\PSoC4/cyfitter_cfg.c **** 			{0xB1u, 0x01u},
 468:Generated_Source\PSoC4/cyfitter_cfg.c **** 			{0xB3u, 0x02u},
 469:Generated_Source\PSoC4/cyfitter_cfg.c **** 			{0xB6u, 0x02u},
 470:Generated_Source\PSoC4/cyfitter_cfg.c **** 			{0xBEu, 0x40u},
 471:Generated_Source\PSoC4/cyfitter_cfg.c **** 			{0xBFu, 0x04u},
 472:Generated_Source\PSoC4/cyfitter_cfg.c **** 			{0xC0u, 0x25u},
 473:Generated_Source\PSoC4/cyfitter_cfg.c **** 			{0xC1u, 0x06u},
 474:Generated_Source\PSoC4/cyfitter_cfg.c **** 			{0xC5u, 0x04u},
 475:Generated_Source\PSoC4/cyfitter_cfg.c **** 			{0xC6u, 0xC2u},
 476:Generated_Source\PSoC4/cyfitter_cfg.c **** 			{0xC7u, 0x0Eu},
 477:Generated_Source\PSoC4/cyfitter_cfg.c **** 			{0xC8u, 0x3Du},
 478:Generated_Source\PSoC4/cyfitter_cfg.c **** 			{0xC9u, 0xFFu},
 479:Generated_Source\PSoC4/cyfitter_cfg.c **** 			{0xCAu, 0xFFu},
 480:Generated_Source\PSoC4/cyfitter_cfg.c **** 			{0xCBu, 0xFFu},
 481:Generated_Source\PSoC4/cyfitter_cfg.c **** 			{0xCDu, 0xAFu},
 482:Generated_Source\PSoC4/cyfitter_cfg.c **** 			{0xCEu, 0x07u},
 483:Generated_Source\PSoC4/cyfitter_cfg.c **** 			{0xCFu, 0x01u},
 484:Generated_Source\PSoC4/cyfitter_cfg.c **** 			{0xD0u, 0x18u},
 485:Generated_Source\PSoC4/cyfitter_cfg.c **** 			{0xD4u, 0x07u},
 486:Generated_Source\PSoC4/cyfitter_cfg.c **** 			{0xD6u, 0x04u},
 487:Generated_Source\PSoC4/cyfitter_cfg.c **** 			{0xD8u, 0x04u},
 488:Generated_Source\PSoC4/cyfitter_cfg.c **** 			{0xD9u, 0x04u},
 489:Generated_Source\PSoC4/cyfitter_cfg.c **** 			{0xDAu, 0x04u},
 490:Generated_Source\PSoC4/cyfitter_cfg.c **** 			{0xDBu, 0x04u},
 491:Generated_Source\PSoC4/cyfitter_cfg.c **** 			{0xDFu, 0x01u},
 492:Generated_Source\PSoC4/cyfitter_cfg.c **** 			{0xE0u, 0x40u},
 493:Generated_Source\PSoC4/cyfitter_cfg.c **** 			{0xE2u, 0x80u},
 494:Generated_Source\PSoC4/cyfitter_cfg.c **** 			{0xE4u, 0x40u},
 495:Generated_Source\PSoC4/cyfitter_cfg.c **** 			{0xE5u, 0x40u},
 496:Generated_Source\PSoC4/cyfitter_cfg.c **** 			{0xE6u, 0x80u},
 497:Generated_Source\PSoC4/cyfitter_cfg.c **** 			{0xE8u, 0x40u},
 498:Generated_Source\PSoC4/cyfitter_cfg.c **** 			{0xEAu, 0x50u},
 499:Generated_Source\PSoC4/cyfitter_cfg.c **** 			{0xEBu, 0xA8u},
 500:Generated_Source\PSoC4/cyfitter_cfg.c **** 			{0xECu, 0x40u},
ARM GAS  C:\Users\PRAJWA~1\AppData\Local\Temp\ccU7CSc1.s 			page 16


 501:Generated_Source\PSoC4/cyfitter_cfg.c **** 			{0xEDu, 0x20u},
 502:Generated_Source\PSoC4/cyfitter_cfg.c **** 			{0xEEu, 0x50u},
 503:Generated_Source\PSoC4/cyfitter_cfg.c **** 			{0xEFu, 0xA8u},
 504:Generated_Source\PSoC4/cyfitter_cfg.c **** 			{0x01u, 0x02u},
 505:Generated_Source\PSoC4/cyfitter_cfg.c **** 			{0x10u, 0x20u},
 506:Generated_Source\PSoC4/cyfitter_cfg.c **** 			{0x19u, 0x42u},
 507:Generated_Source\PSoC4/cyfitter_cfg.c **** 			{0x1Eu, 0x08u},
 508:Generated_Source\PSoC4/cyfitter_cfg.c **** 			{0x21u, 0x02u},
 509:Generated_Source\PSoC4/cyfitter_cfg.c **** 			{0x22u, 0x04u},
 510:Generated_Source\PSoC4/cyfitter_cfg.c **** 			{0x31u, 0x02u},
 511:Generated_Source\PSoC4/cyfitter_cfg.c **** 			{0x39u, 0x02u},
 512:Generated_Source\PSoC4/cyfitter_cfg.c **** 			{0x40u, 0x04u},
 513:Generated_Source\PSoC4/cyfitter_cfg.c **** 			{0x47u, 0x08u},
 514:Generated_Source\PSoC4/cyfitter_cfg.c **** 			{0x48u, 0x20u},
 515:Generated_Source\PSoC4/cyfitter_cfg.c **** 			{0x4Au, 0x06u},
 516:Generated_Source\PSoC4/cyfitter_cfg.c **** 			{0x4Eu, 0x02u},
 517:Generated_Source\PSoC4/cyfitter_cfg.c **** 			{0x4Fu, 0x20u},
 518:Generated_Source\PSoC4/cyfitter_cfg.c **** 			{0x51u, 0x49u},
 519:Generated_Source\PSoC4/cyfitter_cfg.c **** 			{0x52u, 0x12u},
 520:Generated_Source\PSoC4/cyfitter_cfg.c **** 			{0x59u, 0x40u},
 521:Generated_Source\PSoC4/cyfitter_cfg.c **** 			{0x5Au, 0x18u},
 522:Generated_Source\PSoC4/cyfitter_cfg.c **** 			{0x60u, 0x40u},
 523:Generated_Source\PSoC4/cyfitter_cfg.c **** 			{0x61u, 0x08u},
 524:Generated_Source\PSoC4/cyfitter_cfg.c **** 			{0x62u, 0x10u},
 525:Generated_Source\PSoC4/cyfitter_cfg.c **** 			{0x8Cu, 0x40u},
 526:Generated_Source\PSoC4/cyfitter_cfg.c **** 			{0x8Du, 0x40u},
 527:Generated_Source\PSoC4/cyfitter_cfg.c **** 			{0x8Eu, 0x10u},
 528:Generated_Source\PSoC4/cyfitter_cfg.c **** 			{0x90u, 0x04u},
 529:Generated_Source\PSoC4/cyfitter_cfg.c **** 			{0x95u, 0x02u},
 530:Generated_Source\PSoC4/cyfitter_cfg.c **** 			{0x9Bu, 0x08u},
 531:Generated_Source\PSoC4/cyfitter_cfg.c **** 			{0xA3u, 0x10u},
 532:Generated_Source\PSoC4/cyfitter_cfg.c **** 			{0xA6u, 0x06u},
 533:Generated_Source\PSoC4/cyfitter_cfg.c **** 			{0xAAu, 0x80u},
 534:Generated_Source\PSoC4/cyfitter_cfg.c **** 			{0xC0u, 0x08u},
 535:Generated_Source\PSoC4/cyfitter_cfg.c **** 			{0xC4u, 0x04u},
 536:Generated_Source\PSoC4/cyfitter_cfg.c **** 			{0xCCu, 0x01u},
 537:Generated_Source\PSoC4/cyfitter_cfg.c **** 			{0xCEu, 0x01u},
 538:Generated_Source\PSoC4/cyfitter_cfg.c **** 			{0xD0u, 0x44u},
 539:Generated_Source\PSoC4/cyfitter_cfg.c **** 			{0xD2u, 0x3Cu},
 540:Generated_Source\PSoC4/cyfitter_cfg.c **** 			{0xD6u, 0x0Eu},
 541:Generated_Source\PSoC4/cyfitter_cfg.c **** 			{0xD8u, 0x07u},
 542:Generated_Source\PSoC4/cyfitter_cfg.c **** 			{0xE2u, 0x40u},
 543:Generated_Source\PSoC4/cyfitter_cfg.c **** 			{0x03u, 0x22u},
 544:Generated_Source\PSoC4/cyfitter_cfg.c **** 			{0x07u, 0x0Cu},
 545:Generated_Source\PSoC4/cyfitter_cfg.c **** 			{0x69u, 0x40u},
 546:Generated_Source\PSoC4/cyfitter_cfg.c **** 			{0x6Fu, 0x01u},
 547:Generated_Source\PSoC4/cyfitter_cfg.c **** 			{0x73u, 0x08u},
 548:Generated_Source\PSoC4/cyfitter_cfg.c **** 			{0x75u, 0x80u},
 549:Generated_Source\PSoC4/cyfitter_cfg.c **** 			{0x77u, 0x20u},
 550:Generated_Source\PSoC4/cyfitter_cfg.c **** 			{0x7Bu, 0x22u},
 551:Generated_Source\PSoC4/cyfitter_cfg.c **** 			{0x81u, 0x80u},
 552:Generated_Source\PSoC4/cyfitter_cfg.c **** 			{0x83u, 0x20u},
 553:Generated_Source\PSoC4/cyfitter_cfg.c **** 			{0x87u, 0x01u},
 554:Generated_Source\PSoC4/cyfitter_cfg.c **** 			{0x8Bu, 0x20u},
 555:Generated_Source\PSoC4/cyfitter_cfg.c **** 			{0x8Fu, 0x02u},
 556:Generated_Source\PSoC4/cyfitter_cfg.c **** 			{0xC0u, 0xD0u},
 557:Generated_Source\PSoC4/cyfitter_cfg.c **** 			{0xDAu, 0xC0u},
ARM GAS  C:\Users\PRAJWA~1\AppData\Local\Temp\ccU7CSc1.s 			page 17


 558:Generated_Source\PSoC4/cyfitter_cfg.c **** 			{0xDCu, 0xE0u},
 559:Generated_Source\PSoC4/cyfitter_cfg.c **** 			{0xDEu, 0x60u},
 560:Generated_Source\PSoC4/cyfitter_cfg.c **** 			{0xE2u, 0xE0u},
 561:Generated_Source\PSoC4/cyfitter_cfg.c **** 			{0x8Du, 0x40u},
 562:Generated_Source\PSoC4/cyfitter_cfg.c **** 			{0x95u, 0x40u},
 563:Generated_Source\PSoC4/cyfitter_cfg.c **** 			{0xABu, 0x04u},
 564:Generated_Source\PSoC4/cyfitter_cfg.c **** 			{0xE8u, 0x80u},
 565:Generated_Source\PSoC4/cyfitter_cfg.c **** 			{0x10u, 0x01u},
 566:Generated_Source\PSoC4/cyfitter_cfg.c **** 			{0x11u, 0x01u},
 567:Generated_Source\PSoC4/cyfitter_cfg.c **** 		};
 568:Generated_Source\PSoC4/cyfitter_cfg.c **** 
 569:Generated_Source\PSoC4/cyfitter_cfg.c **** 
 570:Generated_Source\PSoC4/cyfitter_cfg.c **** 
 571:Generated_Source\PSoC4/cyfitter_cfg.c **** 		CYPACKED typedef struct {
 572:Generated_Source\PSoC4/cyfitter_cfg.c **** 			void CYFAR *address;
 573:Generated_Source\PSoC4/cyfitter_cfg.c **** 			uint16 size;
 574:Generated_Source\PSoC4/cyfitter_cfg.c **** 		} CYPACKED_ATTR cfg_memset_t;
 575:Generated_Source\PSoC4/cyfitter_cfg.c **** 
 576:Generated_Source\PSoC4/cyfitter_cfg.c **** 		static const cfg_memset_t CYCODE cfg_memset_list[] = {
 577:Generated_Source\PSoC4/cyfitter_cfg.c **** 			/* address, size */
 578:Generated_Source\PSoC4/cyfitter_cfg.c **** 			{(void CYFAR *)(CYDEV_UDB_P0_U0_BASE), 1024u},
 579:Generated_Source\PSoC4/cyfitter_cfg.c **** 			{(void CYFAR *)(CYDEV_UDB_DSI0_BASE), 1024u},
 580:Generated_Source\PSoC4/cyfitter_cfg.c **** 		};
 581:Generated_Source\PSoC4/cyfitter_cfg.c **** 
 582:Generated_Source\PSoC4/cyfitter_cfg.c **** 		uint8 CYDATA i;
 583:Generated_Source\PSoC4/cyfitter_cfg.c **** 
 584:Generated_Source\PSoC4/cyfitter_cfg.c **** 		/* Zero out critical memory blocks before beginning configuration */
 585:Generated_Source\PSoC4/cyfitter_cfg.c **** 		for (i = 0u; i < (sizeof(cfg_memset_list)/sizeof(cfg_memset_list[0])); i++)
 325              		.loc 1 585 0
 326 00f2 0024     		movs	r4, #0
 327 00f4 0FE0     		b	.L14
 328              	.LVL19:
 329              	.L15:
 330              	.LBB4:
 586:Generated_Source\PSoC4/cyfitter_cfg.c **** 		{
 587:Generated_Source\PSoC4/cyfitter_cfg.c **** 			const cfg_memset_t CYCODE * CYDATA ms = &cfg_memset_list[i];
 588:Generated_Source\PSoC4/cyfitter_cfg.c **** 			CYMEMZERO(ms->address, (size_t)(uint32)(ms->size));
 331              		.loc 1 588 0 discriminator 3
 332 00f6 3448     		ldr	r0, .L16+4
 333 00f8 6200     		lsls	r2, r4, #1
 334 00fa 1319     		adds	r3, r2, r4
 335 00fc 5900     		lsls	r1, r3, #1
 336 00fe 0B00     		movs	r3, r1
 337 0100 4118     		adds	r1, r0, r1
 338 0102 8988     		ldrh	r1, [r1, #4]
 339 0104 1A5A     		ldrh	r2, [r3, r0]
 340 0106 C318     		adds	r3, r0, r3
 341 0108 5888     		ldrh	r0, [r3, #2]
 342 010a 0004     		lsls	r0, r0, #16
 343 010c 1043     		orrs	r0, r2
 344 010e FFF7FEFF 		bl	CYMEMZERO
 345              	.LVL20:
 346              	.LBE4:
 585:Generated_Source\PSoC4/cyfitter_cfg.c **** 		{
 347              		.loc 1 585 0 discriminator 3
 348 0112 0134     		adds	r4, r4, #1
 349              	.LVL21:
ARM GAS  C:\Users\PRAJWA~1\AppData\Local\Temp\ccU7CSc1.s 			page 18


 350 0114 E4B2     		uxtb	r4, r4
 351              	.LVL22:
 352              	.L14:
 585:Generated_Source\PSoC4/cyfitter_cfg.c **** 		{
 353              		.loc 1 585 0 is_stmt 0 discriminator 1
 354 0116 012C     		cmp	r4, #1
 355 0118 EDD9     		bls	.L15
 589:Generated_Source\PSoC4/cyfitter_cfg.c **** 		}
 590:Generated_Source\PSoC4/cyfitter_cfg.c **** 
 591:Generated_Source\PSoC4/cyfitter_cfg.c **** 		cfg_write_bytes32(cy_cfg_addr_table, cy_cfg_data_table);
 356              		.loc 1 591 0 is_stmt 1
 357 011a 2B49     		ldr	r1, .L16+4
 358 011c 0C31     		adds	r1, r1, #12
 359 011e 2B48     		ldr	r0, .L16+8
 360 0120 6C30     		adds	r0, r0, #108
 361 0122 FFF7FEFF 		bl	cfg_write_bytes32
 362              	.LVL23:
 592:Generated_Source\PSoC4/cyfitter_cfg.c **** 
 593:Generated_Source\PSoC4/cyfitter_cfg.c **** 		/* Perform normal device configuration. Order is not critical for these items. */
 594:Generated_Source\PSoC4/cyfitter_cfg.c **** 		CY_SET_REG16((void *)(CYREG_UDB_BCTL0_DRV), 0x0100u);
 363              		.loc 1 594 0
 364 0126 8022     		movs	r2, #128
 365 0128 5200     		lsls	r2, r2, #1
 366 012a 294B     		ldr	r3, .L16+12
 367 012c 1A80     		strh	r2, [r3]
 595:Generated_Source\PSoC4/cyfitter_cfg.c **** 		CY_SET_REG8((void *)(CYREG_UDB_BCTL0_DRV + 0x2u), 0x01u);
 368              		.loc 1 595 0
 369 012e FF3A     		subs	r2, r2, #255
 370 0130 284B     		ldr	r3, .L16+16
 371 0132 1A70     		strb	r2, [r3]
 596:Generated_Source\PSoC4/cyfitter_cfg.c **** 
 597:Generated_Source\PSoC4/cyfitter_cfg.c **** 		/* HSIOM Starting address: CYDEV_HSIOM_BASE */
 598:Generated_Source\PSoC4/cyfitter_cfg.c **** 		CY_SET_REG32((void *)(CYREG_HSIOM_PORT_SEL2), 0x08080000u);
 372              		.loc 1 598 0
 373 0134 284A     		ldr	r2, .L16+20
 374 0136 294B     		ldr	r3, .L16+24
 375 0138 1A60     		str	r2, [r3]
 599:Generated_Source\PSoC4/cyfitter_cfg.c **** 		CY_SET_REG32((void *)(CYREG_HSIOM_PORT_SEL3), 0x0008EE00u);
 376              		.loc 1 599 0
 377 013a 294A     		ldr	r2, .L16+28
 378 013c 294B     		ldr	r3, .L16+32
 379 013e 1A60     		str	r2, [r3]
 600:Generated_Source\PSoC4/cyfitter_cfg.c **** 		CY_SET_REG32((void *)(CYREG_HSIOM_PORT_SEL5), 0x00000099u);
 380              		.loc 1 600 0
 381 0140 9922     		movs	r2, #153
 382 0142 294B     		ldr	r3, .L16+36
 383 0144 1A60     		str	r2, [r3]
 601:Generated_Source\PSoC4/cyfitter_cfg.c **** 
 602:Generated_Source\PSoC4/cyfitter_cfg.c **** 		/* UDB_PA_0 Starting address: CYDEV_UDB_PA0_BASE */
 603:Generated_Source\PSoC4/cyfitter_cfg.c **** 		CY_SET_REG32((void *)(CYDEV_UDB_PA0_BASE), 0x00990004u);
 384              		.loc 1 603 0
 385 0146 294A     		ldr	r2, .L16+40
 386 0148 294B     		ldr	r3, .L16+44
 387 014a 1A60     		str	r2, [r3]
 604:Generated_Source\PSoC4/cyfitter_cfg.c **** 		CY_SET_REG32((void *)(CYREG_UDB_PA0_CFG4), 0x00A20000u);
 388              		.loc 1 604 0
 389 014c A222     		movs	r2, #162
ARM GAS  C:\Users\PRAJWA~1\AppData\Local\Temp\ccU7CSc1.s 			page 19


 390 014e 1204     		lsls	r2, r2, #16
 391 0150 284B     		ldr	r3, .L16+48
 392 0152 1A60     		str	r2, [r3]
 605:Generated_Source\PSoC4/cyfitter_cfg.c **** 
 606:Generated_Source\PSoC4/cyfitter_cfg.c **** 		/* UDB_PA_2 Starting address: CYDEV_UDB_PA2_BASE */
 607:Generated_Source\PSoC4/cyfitter_cfg.c **** 		CY_SET_REG32((void *)(CYDEV_UDB_PA2_BASE), 0x00990000u);
 393              		.loc 1 607 0
 394 0154 9923     		movs	r3, #153
 395 0156 1B04     		lsls	r3, r3, #16
 396 0158 274A     		ldr	r2, .L16+52
 397 015a 1360     		str	r3, [r2]
 608:Generated_Source\PSoC4/cyfitter_cfg.c **** 
 609:Generated_Source\PSoC4/cyfitter_cfg.c **** 		/* UDB_PA_3 Starting address: CYDEV_UDB_PA3_BASE */
 610:Generated_Source\PSoC4/cyfitter_cfg.c **** 		CY_SET_REG32((void *)(CYDEV_UDB_PA3_BASE), 0x00990000u);
 398              		.loc 1 610 0
 399 015c 274A     		ldr	r2, .L16+56
 400 015e 1360     		str	r3, [r2]
 611:Generated_Source\PSoC4/cyfitter_cfg.c **** 
 612:Generated_Source\PSoC4/cyfitter_cfg.c **** 		/* INT_SELECT Starting address: CYDEV_CPUSS_INT_SEL */
 613:Generated_Source\PSoC4/cyfitter_cfg.c **** 		CY_SET_REG32((void *)(CYREG_CPUSS_INT_SEL), 0x0000007Fu);
 401              		.loc 1 613 0
 402 0160 7F23     		movs	r3, #127
 403 0162 274A     		ldr	r2, .L16+60
 404 0164 1360     		str	r3, [r2]
 614:Generated_Source\PSoC4/cyfitter_cfg.c **** 
 615:Generated_Source\PSoC4/cyfitter_cfg.c **** 		/* INT_CONFIG Starting address: CYDEV_UDB_INT_CFG */
 616:Generated_Source\PSoC4/cyfitter_cfg.c **** 		CY_SET_REG32((void *)(CYREG_UDB_INT_CFG), 0x0000007Fu);
 405              		.loc 1 616 0
 406 0166 274A     		ldr	r2, .L16+64
 407 0168 1360     		str	r3, [r2]
 617:Generated_Source\PSoC4/cyfitter_cfg.c **** 
 618:Generated_Source\PSoC4/cyfitter_cfg.c **** 		/* Enable UDB array and digital routing */
 619:Generated_Source\PSoC4/cyfitter_cfg.c **** 		CY_SET_XTND_REG8((void *)CYREG_UDB_UDBIF_WAIT_CFG, (uint8)((CY_GET_XTND_REG8((void *)CYREG_UDB_UD
 408              		.loc 1 619 0
 409 016a 2749     		ldr	r1, .L16+68
 410 016c 0B78     		ldrb	r3, [r1]
 411 016e 3C22     		movs	r2, #60
 412 0170 9343     		bics	r3, r2
 413 0172 1422     		movs	r2, #20
 414 0174 1343     		orrs	r3, r2
 415 0176 DBB2     		uxtb	r3, r3
 416 0178 0B70     		strb	r3, [r1]
 620:Generated_Source\PSoC4/cyfitter_cfg.c **** 		CY_SET_XTND_REG8((void *)CYREG_UDB_UDBIF_BANK_CTL, (uint8)(CY_GET_XTND_REG8((void *)CYREG_UDB_UDB
 417              		.loc 1 620 0
 418 017a 244A     		ldr	r2, .L16+72
 419 017c 1178     		ldrb	r1, [r2]
 420 017e 1623     		movs	r3, #22
 421 0180 0B43     		orrs	r3, r1
 422 0182 DBB2     		uxtb	r3, r3
 423 0184 1370     		strb	r3, [r2]
 424              	.LBE3:
 621:Generated_Source\PSoC4/cyfitter_cfg.c **** 	}
 622:Generated_Source\PSoC4/cyfitter_cfg.c **** 
 623:Generated_Source\PSoC4/cyfitter_cfg.c **** 	/* Perform second pass device configuration. These items must be configured in specific order afte
 624:Generated_Source\PSoC4/cyfitter_cfg.c **** 	/* IOPINS0_0 Starting address: CYDEV_GPIO_PRT0_BASE */
 625:Generated_Source\PSoC4/cyfitter_cfg.c **** 	CY_SET_REG32((void *)(CYREG_GPIO_PRT0_PC), 0x00180241u);
 425              		.loc 1 625 0
ARM GAS  C:\Users\PRAJWA~1\AppData\Local\Temp\ccU7CSc1.s 			page 20


 426 0186 224A     		ldr	r2, .L16+76
 427 0188 224B     		ldr	r3, .L16+80
 428 018a 1A60     		str	r2, [r3]
 626:Generated_Source\PSoC4/cyfitter_cfg.c **** 	CY_SET_REG32((void *)(CYREG_GPIO_PRT0_INTR_CFG), 0x000000F3u);
 429              		.loc 1 626 0
 430 018c F322     		movs	r2, #243
 431 018e 224B     		ldr	r3, .L16+84
 432 0190 1A60     		str	r2, [r3]
 627:Generated_Source\PSoC4/cyfitter_cfg.c **** 
 628:Generated_Source\PSoC4/cyfitter_cfg.c **** 	/* IOPINS0_2 Starting address: CYDEV_GPIO_PRT2_BASE */
 629:Generated_Source\PSoC4/cyfitter_cfg.c **** 	CY_SET_REG32((void *)(CYDEV_GPIO_PRT2_BASE), 0x00000050u);
 433              		.loc 1 629 0
 434 0192 A33A     		subs	r2, r2, #163
 435 0194 214B     		ldr	r3, .L16+88
 436 0196 1A60     		str	r2, [r3]
 630:Generated_Source\PSoC4/cyfitter_cfg.c **** 	CY_SET_REG32((void *)(CYREG_GPIO_PRT2_PC), 0x00DB6000u);
 437              		.loc 1 630 0
 438 0198 214A     		ldr	r2, .L16+92
 439 019a 224B     		ldr	r3, .L16+96
 440 019c 1A60     		str	r2, [r3]
 631:Generated_Source\PSoC4/cyfitter_cfg.c **** 
 632:Generated_Source\PSoC4/cyfitter_cfg.c **** 	/* IOPINS0_3 Starting address: CYDEV_GPIO_PRT3_BASE */
 633:Generated_Source\PSoC4/cyfitter_cfg.c **** 	CY_SET_REG32((void *)(CYDEV_GPIO_PRT3_BASE), 0x00000010u);
 441              		.loc 1 633 0
 442 019e 1022     		movs	r2, #16
 443 01a0 214B     		ldr	r3, .L16+100
 444 01a2 1A60     		str	r2, [r3]
 634:Generated_Source\PSoC4/cyfitter_cfg.c **** 	CY_SET_REG32((void *)(CYREG_GPIO_PRT3_PC), 0x00036D80u);
 445              		.loc 1 634 0
 446 01a4 214A     		ldr	r2, .L16+104
 447 01a6 224B     		ldr	r3, .L16+108
 448 01a8 1A60     		str	r2, [r3]
 635:Generated_Source\PSoC4/cyfitter_cfg.c **** 
 636:Generated_Source\PSoC4/cyfitter_cfg.c **** 	/* IOPINS0_5 Starting address: CYDEV_GPIO_PRT5_BASE */
 637:Generated_Source\PSoC4/cyfitter_cfg.c **** 	CY_SET_REG32((void *)(CYDEV_GPIO_PRT5_BASE), 0x00000002u);
 449              		.loc 1 637 0
 450 01aa 0223     		movs	r3, #2
 451 01ac 214A     		ldr	r2, .L16+112
 452 01ae 1360     		str	r3, [r2]
 638:Generated_Source\PSoC4/cyfitter_cfg.c **** 	CY_SET_REG32((void *)(CYREG_GPIO_PRT5_PC), 0x00030031u);
 453              		.loc 1 638 0
 454 01b0 2149     		ldr	r1, .L16+116
 455 01b2 224A     		ldr	r2, .L16+120
 456 01b4 1160     		str	r1, [r2]
 639:Generated_Source\PSoC4/cyfitter_cfg.c **** 	CY_SET_REG32((void *)(CYREG_GPIO_PRT5_PC2), 0x00000002u);
 457              		.loc 1 639 0
 458 01b6 224A     		ldr	r2, .L16+124
 459 01b8 1360     		str	r3, [r2]
 640:Generated_Source\PSoC4/cyfitter_cfg.c **** 
 641:Generated_Source\PSoC4/cyfitter_cfg.c **** 
 642:Generated_Source\PSoC4/cyfitter_cfg.c **** 	/* Setup clocks based on selections from Clock DWR */
 643:Generated_Source\PSoC4/cyfitter_cfg.c **** 	ClockSetup();
 460              		.loc 1 643 0
 461 01ba FFF721FF 		bl	ClockSetup
 462              	.LVL24:
 644:Generated_Source\PSoC4/cyfitter_cfg.c **** 
 645:Generated_Source\PSoC4/cyfitter_cfg.c **** 	/* Perform basic analog initialization to defaults */
ARM GAS  C:\Users\PRAJWA~1\AppData\Local\Temp\ccU7CSc1.s 			page 21


 646:Generated_Source\PSoC4/cyfitter_cfg.c **** 	AnalogSetDefault();
 463              		.loc 1 646 0
 464 01be FFF7FEFF 		bl	AnalogSetDefault
 465              	.LVL25:
 647:Generated_Source\PSoC4/cyfitter_cfg.c **** 
 648:Generated_Source\PSoC4/cyfitter_cfg.c **** }
 466              		.loc 1 648 0
 467              		@ sp needed
 468              	.LVL26:
 469 01c2 10BD     		pop	{r4, pc}
 470              	.L17:
 471              		.align	2
 472              	.L16:
 473 01c4 1C700F40 		.word	1074753564
 474 01c8 00000000 		.word	.LANCHOR0
 475 01cc 80010000 		.word	.LANCHOR1
 476 01d0 00600F40 		.word	1074749440
 477 01d4 02600F40 		.word	1074749442
 478 01d8 00000808 		.word	134742016
 479 01dc 00020240 		.word	1073873408
 480 01e0 00EE0800 		.word	585216
 481 01e4 00030240 		.word	1073873664
 482 01e8 00050240 		.word	1073874176
 483 01ec 04009900 		.word	10027012
 484 01f0 00500F40 		.word	1074745344
 485 01f4 04500F40 		.word	1074745348
 486 01f8 20500F40 		.word	1074745376
 487 01fc 30500F40 		.word	1074745392
 488 0200 20001040 		.word	1074790432
 489 0204 00800F40 		.word	1074757632
 490 0208 01700F40 		.word	1074753537
 491 020c 00700F40 		.word	1074753536
 492 0210 41021800 		.word	1573441
 493 0214 08000440 		.word	1074003976
 494 0218 0C000440 		.word	1074003980
 495 021c 00020440 		.word	1074004480
 496 0220 0060DB00 		.word	14376960
 497 0224 08020440 		.word	1074004488
 498 0228 00030440 		.word	1074004736
 499 022c 806D0300 		.word	224640
 500 0230 08030440 		.word	1074004744
 501 0234 00050440 		.word	1074005248
 502 0238 31000300 		.word	196657
 503 023c 08050440 		.word	1074005256
 504 0240 18050440 		.word	1074005272
 505              		.cfi_endproc
 506              	.LFE7:
 507              		.size	cyfitter_cfg, .-cyfitter_cfg
 508              		.section	.rodata
 509              		.align	2
 510              		.set	.LANCHOR0,. + 0
 511              		.set	.LANCHOR1,. + 384
 512              		.type	cfg_memset_list.4911, %object
 513              		.size	cfg_memset_list.4911, 12
 514              	cfg_memset_list.4911:
 515 0000 00300F40 		.word	1074737152
 516 0004 0004     		.short	1024
ARM GAS  C:\Users\PRAJWA~1\AppData\Local\Temp\ccU7CSc1.s 			page 22


 517 0006 00400F40 		.4byte	1074741248
 518 000a 0004     		.short	1024
 519              		.type	cy_cfg_data_table.4906, %object
 520              		.size	cy_cfg_data_table.4906, 480
 521              	cy_cfg_data_table.4906:
 522 000c 83       		.byte	-125
 523 000d 67       		.byte	103
 524 000e 0E       		.byte	14
 525 000f 03       		.byte	3
 526 0010 14       		.byte	20
 527 0011 04       		.byte	4
 528 0012 1A       		.byte	26
 529 0013 0C       		.byte	12
 530 0014 1C       		.byte	28
 531 0015 01       		.byte	1
 532 0016 2E       		.byte	46
 533 0017 01       		.byte	1
 534 0018 30       		.byte	48
 535 0019 04       		.byte	4
 536 001a 32       		.byte	50
 537 001b 08       		.byte	8
 538 001c 34       		.byte	52
 539 001d 01       		.byte	1
 540 001e 36       		.byte	54
 541 001f 02       		.byte	2
 542 0020 38       		.byte	56
 543 0021 02       		.byte	2
 544 0022 39       		.byte	57
 545 0023 20       		.byte	32
 546 0024 3A       		.byte	58
 547 0025 08       		.byte	8
 548 0026 3E       		.byte	62
 549 0027 10       		.byte	16
 550 0028 40       		.byte	64
 551 0029 24       		.byte	36
 552 002a 41       		.byte	65
 553 002b 06       		.byte	6
 554 002c 49       		.byte	73
 555 002d FF       		.byte	-1
 556 002e 4A       		.byte	74
 557 002f FF       		.byte	-1
 558 0030 4B       		.byte	75
 559 0031 FF       		.byte	-1
 560 0032 4D       		.byte	77
 561 0033 A0       		.byte	-96
 562 0034 4F       		.byte	79
 563 0035 01       		.byte	1
 564 0036 50       		.byte	80
 565 0037 18       		.byte	24
 566 0038 52       		.byte	82
 567 0039 80       		.byte	-128
 568 003a 58       		.byte	88
 569 003b 04       		.byte	4
 570 003c 59       		.byte	89
 571 003d 04       		.byte	4
 572 003e 5A       		.byte	90
 573 003f 04       		.byte	4
ARM GAS  C:\Users\PRAJWA~1\AppData\Local\Temp\ccU7CSc1.s 			page 23


 574 0040 5B       		.byte	91
 575 0041 04       		.byte	4
 576 0042 5F       		.byte	95
 577 0043 01       		.byte	1
 578 0044 60       		.byte	96
 579 0045 40       		.byte	64
 580 0046 62       		.byte	98
 581 0047 80       		.byte	-128
 582 0048 64       		.byte	100
 583 0049 40       		.byte	64
 584 004a 65       		.byte	101
 585 004b 40       		.byte	64
 586 004c 66       		.byte	102
 587 004d 80       		.byte	-128
 588 004e 68       		.byte	104
 589 004f 40       		.byte	64
 590 0050 6A       		.byte	106
 591 0051 50       		.byte	80
 592 0052 6B       		.byte	107
 593 0053 A8       		.byte	-88
 594 0054 6C       		.byte	108
 595 0055 40       		.byte	64
 596 0056 6D       		.byte	109
 597 0057 20       		.byte	32
 598 0058 6E       		.byte	110
 599 0059 50       		.byte	80
 600 005a 6F       		.byte	111
 601 005b A8       		.byte	-88
 602 005c 88       		.byte	-120
 603 005d 01       		.byte	1
 604 005e 8C       		.byte	-116
 605 005f 02       		.byte	2
 606 0060 AD       		.byte	-83
 607 0061 01       		.byte	1
 608 0062 B0       		.byte	-80
 609 0063 01       		.byte	1
 610 0064 B1       		.byte	-79
 611 0065 01       		.byte	1
 612 0066 B2       		.byte	-78
 613 0067 02       		.byte	2
 614 0068 BE       		.byte	-66
 615 0069 05       		.byte	5
 616 006a BF       		.byte	-65
 617 006b 01       		.byte	1
 618 006c C0       		.byte	-64
 619 006d 65       		.byte	101
 620 006e C1       		.byte	-63
 621 006f 03       		.byte	3
 622 0070 C9       		.byte	-55
 623 0071 FF       		.byte	-1
 624 0072 CA       		.byte	-54
 625 0073 FF       		.byte	-1
 626 0074 CB       		.byte	-53
 627 0075 FF       		.byte	-1
 628 0076 CD       		.byte	-51
 629 0077 AF       		.byte	-81
 630 0078 CE       		.byte	-50
ARM GAS  C:\Users\PRAJWA~1\AppData\Local\Temp\ccU7CSc1.s 			page 24


 631 0079 07       		.byte	7
 632 007a CF       		.byte	-49
 633 007b 01       		.byte	1
 634 007c D0       		.byte	-48
 635 007d 18       		.byte	24
 636 007e D8       		.byte	-40
 637 007f 04       		.byte	4
 638 0080 D9       		.byte	-39
 639 0081 04       		.byte	4
 640 0082 DA       		.byte	-38
 641 0083 04       		.byte	4
 642 0084 DF       		.byte	-33
 643 0085 01       		.byte	1
 644 0086 E0       		.byte	-32
 645 0087 40       		.byte	64
 646 0088 E2       		.byte	-30
 647 0089 80       		.byte	-128
 648 008a E4       		.byte	-28
 649 008b 40       		.byte	64
 650 008c E5       		.byte	-27
 651 008d 40       		.byte	64
 652 008e E6       		.byte	-26
 653 008f 80       		.byte	-128
 654 0090 E8       		.byte	-24
 655 0091 40       		.byte	64
 656 0092 EA       		.byte	-22
 657 0093 50       		.byte	80
 658 0094 EB       		.byte	-21
 659 0095 A8       		.byte	-88
 660 0096 EC       		.byte	-20
 661 0097 40       		.byte	64
 662 0098 ED       		.byte	-19
 663 0099 20       		.byte	32
 664 009a EE       		.byte	-18
 665 009b 50       		.byte	80
 666 009c EF       		.byte	-17
 667 009d A8       		.byte	-88
 668 009e 00       		.byte	0
 669 009f 40       		.byte	64
 670 00a0 04       		.byte	4
 671 00a1 20       		.byte	32
 672 00a2 05       		.byte	5
 673 00a3 40       		.byte	64
 674 00a4 09       		.byte	9
 675 00a5 20       		.byte	32
 676 00a6 0A       		.byte	10
 677 00a7 21       		.byte	33
 678 00a8 10       		.byte	16
 679 00a9 02       		.byte	2
 680 00aa 18       		.byte	24
 681 00ab 44       		.byte	68
 682 00ac 1A       		.byte	26
 683 00ad 21       		.byte	33
 684 00ae 1B       		.byte	27
 685 00af 10       		.byte	16
 686 00b0 1D       		.byte	29
 687 00b1 01       		.byte	1
ARM GAS  C:\Users\PRAJWA~1\AppData\Local\Temp\ccU7CSc1.s 			page 25


 688 00b2 1E       		.byte	30
 689 00b3 10       		.byte	16
 690 00b4 21       		.byte	33
 691 00b5 20       		.byte	32
 692 00b6 27       		.byte	39
 693 00b7 80       		.byte	-128
 694 00b8 2E       		.byte	46
 695 00b9 80       		.byte	-128
 696 00ba 36       		.byte	54
 697 00bb 04       		.byte	4
 698 00bc 37       		.byte	55
 699 00bd 08       		.byte	8
 700 00be 40       		.byte	64
 701 00bf 04       		.byte	4
 702 00c0 41       		.byte	65
 703 00c1 01       		.byte	1
 704 00c2 47       		.byte	71
 705 00c3 08       		.byte	8
 706 00c4 4A       		.byte	74
 707 00c5 04       		.byte	4
 708 00c6 4E       		.byte	78
 709 00c7 02       		.byte	2
 710 00c8 4F       		.byte	79
 711 00c9 20       		.byte	32
 712 00ca 70       		.byte	112
 713 00cb 02       		.byte	2
 714 00cc 81       		.byte	-127
 715 00cd 01       		.byte	1
 716 00ce 82       		.byte	-126
 717 00cf 10       		.byte	16
 718 00d0 87       		.byte	-121
 719 00d1 80       		.byte	-128
 720 00d2 89       		.byte	-119
 721 00d3 40       		.byte	64
 722 00d4 8C       		.byte	-116
 723 00d5 10       		.byte	16
 724 00d6 C0       		.byte	-64
 725 00d7 C1       		.byte	-63
 726 00d8 C2       		.byte	-62
 727 00d9 07       		.byte	7
 728 00da C4       		.byte	-60
 729 00db 01       		.byte	1
 730 00dc CA       		.byte	-54
 731 00dd 10       		.byte	16
 732 00de D0       		.byte	-48
 733 00df 45       		.byte	69
 734 00e0 D2       		.byte	-46
 735 00e1 34       		.byte	52
 736 00e2 E0       		.byte	-32
 737 00e3 80       		.byte	-128
 738 00e4 E4       		.byte	-28
 739 00e5 40       		.byte	64
 740 00e6 38       		.byte	56
 741 00e7 20       		.byte	32
 742 00e8 3E       		.byte	62
 743 00e9 10       		.byte	16
 744 00ea 40       		.byte	64
ARM GAS  C:\Users\PRAJWA~1\AppData\Local\Temp\ccU7CSc1.s 			page 26


 745 00eb 65       		.byte	101
 746 00ec 41       		.byte	65
 747 00ed 03       		.byte	3
 748 00ee 49       		.byte	73
 749 00ef FF       		.byte	-1
 750 00f0 4A       		.byte	74
 751 00f1 FF       		.byte	-1
 752 00f2 4B       		.byte	75
 753 00f3 FF       		.byte	-1
 754 00f4 4D       		.byte	77
 755 00f5 AF       		.byte	-81
 756 00f6 4E       		.byte	78
 757 00f7 07       		.byte	7
 758 00f8 4F       		.byte	79
 759 00f9 01       		.byte	1
 760 00fa 50       		.byte	80
 761 00fb 18       		.byte	24
 762 00fc 58       		.byte	88
 763 00fd 04       		.byte	4
 764 00fe 5A       		.byte	90
 765 00ff 04       		.byte	4
 766 0100 5F       		.byte	95
 767 0101 01       		.byte	1
 768 0102 60       		.byte	96
 769 0103 40       		.byte	64
 770 0104 62       		.byte	98
 771 0105 80       		.byte	-128
 772 0106 64       		.byte	100
 773 0107 40       		.byte	64
 774 0108 65       		.byte	101
 775 0109 40       		.byte	64
 776 010a 66       		.byte	102
 777 010b 80       		.byte	-128
 778 010c 68       		.byte	104
 779 010d 40       		.byte	64
 780 010e 6A       		.byte	106
 781 010f 50       		.byte	80
 782 0110 6B       		.byte	107
 783 0111 A8       		.byte	-88
 784 0112 6C       		.byte	108
 785 0113 40       		.byte	64
 786 0114 6D       		.byte	109
 787 0115 20       		.byte	32
 788 0116 6E       		.byte	110
 789 0117 50       		.byte	80
 790 0118 6F       		.byte	111
 791 0119 A8       		.byte	-88
 792 011a 80       		.byte	-128
 793 011b 02       		.byte	2
 794 011c 83       		.byte	-125
 795 011d 03       		.byte	3
 796 011e 91       		.byte	-111
 797 011f 02       		.byte	2
 798 0120 A6       		.byte	-90
 799 0121 03       		.byte	3
 800 0122 B0       		.byte	-80
 801 0123 01       		.byte	1
ARM GAS  C:\Users\PRAJWA~1\AppData\Local\Temp\ccU7CSc1.s 			page 27


 802 0124 B1       		.byte	-79
 803 0125 01       		.byte	1
 804 0126 B3       		.byte	-77
 805 0127 02       		.byte	2
 806 0128 B6       		.byte	-74
 807 0129 02       		.byte	2
 808 012a BE       		.byte	-66
 809 012b 40       		.byte	64
 810 012c BF       		.byte	-65
 811 012d 04       		.byte	4
 812 012e C0       		.byte	-64
 813 012f 25       		.byte	37
 814 0130 C1       		.byte	-63
 815 0131 06       		.byte	6
 816 0132 C5       		.byte	-59
 817 0133 04       		.byte	4
 818 0134 C6       		.byte	-58
 819 0135 C2       		.byte	-62
 820 0136 C7       		.byte	-57
 821 0137 0E       		.byte	14
 822 0138 C8       		.byte	-56
 823 0139 3D       		.byte	61
 824 013a C9       		.byte	-55
 825 013b FF       		.byte	-1
 826 013c CA       		.byte	-54
 827 013d FF       		.byte	-1
 828 013e CB       		.byte	-53
 829 013f FF       		.byte	-1
 830 0140 CD       		.byte	-51
 831 0141 AF       		.byte	-81
 832 0142 CE       		.byte	-50
 833 0143 07       		.byte	7
 834 0144 CF       		.byte	-49
 835 0145 01       		.byte	1
 836 0146 D0       		.byte	-48
 837 0147 18       		.byte	24
 838 0148 D4       		.byte	-44
 839 0149 07       		.byte	7
 840 014a D6       		.byte	-42
 841 014b 04       		.byte	4
 842 014c D8       		.byte	-40
 843 014d 04       		.byte	4
 844 014e D9       		.byte	-39
 845 014f 04       		.byte	4
 846 0150 DA       		.byte	-38
 847 0151 04       		.byte	4
 848 0152 DB       		.byte	-37
 849 0153 04       		.byte	4
 850 0154 DF       		.byte	-33
 851 0155 01       		.byte	1
 852 0156 E0       		.byte	-32
 853 0157 40       		.byte	64
 854 0158 E2       		.byte	-30
 855 0159 80       		.byte	-128
 856 015a E4       		.byte	-28
 857 015b 40       		.byte	64
 858 015c E5       		.byte	-27
ARM GAS  C:\Users\PRAJWA~1\AppData\Local\Temp\ccU7CSc1.s 			page 28


 859 015d 40       		.byte	64
 860 015e E6       		.byte	-26
 861 015f 80       		.byte	-128
 862 0160 E8       		.byte	-24
 863 0161 40       		.byte	64
 864 0162 EA       		.byte	-22
 865 0163 50       		.byte	80
 866 0164 EB       		.byte	-21
 867 0165 A8       		.byte	-88
 868 0166 EC       		.byte	-20
 869 0167 40       		.byte	64
 870 0168 ED       		.byte	-19
 871 0169 20       		.byte	32
 872 016a EE       		.byte	-18
 873 016b 50       		.byte	80
 874 016c EF       		.byte	-17
 875 016d A8       		.byte	-88
 876 016e 01       		.byte	1
 877 016f 02       		.byte	2
 878 0170 10       		.byte	16
 879 0171 20       		.byte	32
 880 0172 19       		.byte	25
 881 0173 42       		.byte	66
 882 0174 1E       		.byte	30
 883 0175 08       		.byte	8
 884 0176 21       		.byte	33
 885 0177 02       		.byte	2
 886 0178 22       		.byte	34
 887 0179 04       		.byte	4
 888 017a 31       		.byte	49
 889 017b 02       		.byte	2
 890 017c 39       		.byte	57
 891 017d 02       		.byte	2
 892 017e 40       		.byte	64
 893 017f 04       		.byte	4
 894 0180 47       		.byte	71
 895 0181 08       		.byte	8
 896 0182 48       		.byte	72
 897 0183 20       		.byte	32
 898 0184 4A       		.byte	74
 899 0185 06       		.byte	6
 900 0186 4E       		.byte	78
 901 0187 02       		.byte	2
 902 0188 4F       		.byte	79
 903 0189 20       		.byte	32
 904 018a 51       		.byte	81
 905 018b 49       		.byte	73
 906 018c 52       		.byte	82
 907 018d 12       		.byte	18
 908 018e 59       		.byte	89
 909 018f 40       		.byte	64
 910 0190 5A       		.byte	90
 911 0191 18       		.byte	24
 912 0192 60       		.byte	96
 913 0193 40       		.byte	64
 914 0194 61       		.byte	97
 915 0195 08       		.byte	8
ARM GAS  C:\Users\PRAJWA~1\AppData\Local\Temp\ccU7CSc1.s 			page 29


 916 0196 62       		.byte	98
 917 0197 10       		.byte	16
 918 0198 8C       		.byte	-116
 919 0199 40       		.byte	64
 920 019a 8D       		.byte	-115
 921 019b 40       		.byte	64
 922 019c 8E       		.byte	-114
 923 019d 10       		.byte	16
 924 019e 90       		.byte	-112
 925 019f 04       		.byte	4
 926 01a0 95       		.byte	-107
 927 01a1 02       		.byte	2
 928 01a2 9B       		.byte	-101
 929 01a3 08       		.byte	8
 930 01a4 A3       		.byte	-93
 931 01a5 10       		.byte	16
 932 01a6 A6       		.byte	-90
 933 01a7 06       		.byte	6
 934 01a8 AA       		.byte	-86
 935 01a9 80       		.byte	-128
 936 01aa C0       		.byte	-64
 937 01ab 08       		.byte	8
 938 01ac C4       		.byte	-60
 939 01ad 04       		.byte	4
 940 01ae CC       		.byte	-52
 941 01af 01       		.byte	1
 942 01b0 CE       		.byte	-50
 943 01b1 01       		.byte	1
 944 01b2 D0       		.byte	-48
 945 01b3 44       		.byte	68
 946 01b4 D2       		.byte	-46
 947 01b5 3C       		.byte	60
 948 01b6 D6       		.byte	-42
 949 01b7 0E       		.byte	14
 950 01b8 D8       		.byte	-40
 951 01b9 07       		.byte	7
 952 01ba E2       		.byte	-30
 953 01bb 40       		.byte	64
 954 01bc 03       		.byte	3
 955 01bd 22       		.byte	34
 956 01be 07       		.byte	7
 957 01bf 0C       		.byte	12
 958 01c0 69       		.byte	105
 959 01c1 40       		.byte	64
 960 01c2 6F       		.byte	111
 961 01c3 01       		.byte	1
 962 01c4 73       		.byte	115
 963 01c5 08       		.byte	8
 964 01c6 75       		.byte	117
 965 01c7 80       		.byte	-128
 966 01c8 77       		.byte	119
 967 01c9 20       		.byte	32
 968 01ca 7B       		.byte	123
 969 01cb 22       		.byte	34
 970 01cc 81       		.byte	-127
 971 01cd 80       		.byte	-128
 972 01ce 83       		.byte	-125
ARM GAS  C:\Users\PRAJWA~1\AppData\Local\Temp\ccU7CSc1.s 			page 30


 973 01cf 20       		.byte	32
 974 01d0 87       		.byte	-121
 975 01d1 01       		.byte	1
 976 01d2 8B       		.byte	-117
 977 01d3 20       		.byte	32
 978 01d4 8F       		.byte	-113
 979 01d5 02       		.byte	2
 980 01d6 C0       		.byte	-64
 981 01d7 D0       		.byte	-48
 982 01d8 DA       		.byte	-38
 983 01d9 C0       		.byte	-64
 984 01da DC       		.byte	-36
 985 01db E0       		.byte	-32
 986 01dc DE       		.byte	-34
 987 01dd 60       		.byte	96
 988 01de E2       		.byte	-30
 989 01df E0       		.byte	-32
 990 01e0 8D       		.byte	-115
 991 01e1 40       		.byte	64
 992 01e2 95       		.byte	-107
 993 01e3 40       		.byte	64
 994 01e4 AB       		.byte	-85
 995 01e5 04       		.byte	4
 996 01e6 E8       		.byte	-24
 997 01e7 80       		.byte	-128
 998 01e8 10       		.byte	16
 999 01e9 01       		.byte	1
 1000 01ea 11       		.byte	17
 1001 01eb 01       		.byte	1
 1002              		.type	cy_cfg_addr_table.4905, %object
 1003              		.size	cy_cfg_addr_table.4905, 32
 1004              	cy_cfg_addr_table.4905:
 1005 01ec 01000F40 		.word	1074724865
 1006 01f0 48300F40 		.word	1074737224
 1007 01f4 24310F40 		.word	1074737444
 1008 01f8 44320F40 		.word	1074737732
 1009 01fc 27330F40 		.word	1074737959
 1010 0200 12400F40 		.word	1074741266
 1011 0204 04410F40 		.word	1074741508
 1012 0208 02600F40 		.word	1074749442
 1013              		.text
 1014              	.Letext0:
 1015              		.file 2 "c:\\program files (x86)\\cypress\\psoc creator\\4.4\\psoc creator\\import\\gnu\\arm\\5.4.
 1016              		.file 3 "Generated_Source\\PSoC4\\cytypes.h"
 1017              		.file 4 "Generated_Source\\PSoC4\\CyLib.h"